
Retronica_1.0.3.elf:     file format elf32-avr

Sections:
Idx Name          Size      VMA       LMA       File off  Algn
  0 .text         00001b36  00000000  00000000  000000b4  2**1
                  CONTENTS, ALLOC, LOAD, READONLY, CODE
  1 .data         0000000c  00800060  00001b36  00001bea  2**0
                  CONTENTS, ALLOC, LOAD, DATA
  2 .bss          0000005d  0080006c  0080006c  00001bf6  2**0
                  ALLOC
  3 .noinit       00000001  008000c9  008000c9  00001bf6  2**0
                  ALLOC
  4 .eeprom       00000017  00810000  00810000  00001bf6  2**0
                  CONTENTS, ALLOC, LOAD, DATA
  5 .comment      00000030  00000000  00000000  00001c0d  2**0
                  CONTENTS, READONLY
  6 .note.gnu.avr.deviceinfo 0000003c  00000000  00000000  00001c40  2**2
                  CONTENTS, READONLY
  7 .debug_aranges 00000380  00000000  00000000  00001c80  2**3
                  CONTENTS, READONLY, DEBUGGING
  8 .debug_info   00003ca2  00000000  00000000  00002000  2**0
                  CONTENTS, READONLY, DEBUGGING
  9 .debug_abbrev 0000148e  00000000  00000000  00005ca2  2**0
                  CONTENTS, READONLY, DEBUGGING
 10 .debug_line   00002537  00000000  00000000  00007130  2**0
                  CONTENTS, READONLY, DEBUGGING
 11 .debug_frame  00000598  00000000  00000000  00009668  2**2
                  CONTENTS, READONLY, DEBUGGING
 12 .debug_str    00000ba7  00000000  00000000  00009c00  2**0
                  CONTENTS, READONLY, DEBUGGING
 13 .debug_loc    00000f83  00000000  00000000  0000a7a7  2**0
                  CONTENTS, READONLY, DEBUGGING
 14 .debug_ranges 00000250  00000000  00000000  0000b72a  2**0
                  CONTENTS, READONLY, DEBUGGING

Disassembly of section .text:

00000000 <__vectors>:
       0:	5a c0       	rjmp	.+180    	; 0xb6 <__ctors_end>
       2:	74 c0       	rjmp	.+232    	; 0xec <__bad_interrupt>
       4:	73 c0       	rjmp	.+230    	; 0xec <__bad_interrupt>
       6:	ee c2       	rjmp	.+1500   	; 0x5e4 <__vector_3>
       8:	71 c0       	rjmp	.+226    	; 0xec <__bad_interrupt>
       a:	70 c0       	rjmp	.+224    	; 0xec <__bad_interrupt>
       c:	6f c0       	rjmp	.+222    	; 0xec <__bad_interrupt>
       e:	6e c0       	rjmp	.+220    	; 0xec <__bad_interrupt>
      10:	6d c0       	rjmp	.+218    	; 0xec <__bad_interrupt>
      12:	5f cc       	rjmp	.-1858   	; 0xfffff8d2 <__eeprom_end+0xff7ef8bb>
      14:	6b c0       	rjmp	.+214    	; 0xec <__bad_interrupt>
      16:	6a c0       	rjmp	.+212    	; 0xec <__bad_interrupt>
      18:	69 c0       	rjmp	.+210    	; 0xec <__bad_interrupt>
      1a:	68 c0       	rjmp	.+208    	; 0xec <__bad_interrupt>
      1c:	67 c0       	rjmp	.+206    	; 0xec <__bad_interrupt>
      1e:	66 c0       	rjmp	.+204    	; 0xec <__bad_interrupt>
      20:	65 c0       	rjmp	.+202    	; 0xec <__bad_interrupt>
      22:	64 c0       	rjmp	.+200    	; 0xec <__bad_interrupt>
      24:	63 c0       	rjmp	.+198    	; 0xec <__bad_interrupt>

00000026 <__trampolines_end>:
      26:	26 00       	.word	0x0026	; ????
      28:	26 00       	.word	0x0026	; ????
      2a:	a6 00       	.word	0x00a6	; ????
      2c:	fe 0b       	sbc	r31, r30

0000002e <time_light>:
      2e:	2e 00 2e 00 26 00 df 0b                             ....&...

00000036 <mode_light>:
      36:	36 00 36 00 2e 00 b0 0b                             6.6.....

0000003e <s_minuts>:
      3e:	3e 00 3e 00 a6 00 50 0b                             >.>...P.

00000046 <s_hours>:
      46:	46 00 46 00 3e 00 e7 0a                             F.F.>...

0000004e <activation>:
      4e:	4e 00 4e 00 46 00 ba 0a                             N.N.F...

00000056 <num_alarm>:
      56:	56 00 56 00 4e 00 65 0a                             V.V.N.e.

0000005e <correct>:
      5e:	5e 00 5e 00 a6 00 30 0a                             ^.^...0.

00000066 <show_temp>:
      66:	66 00 66 00 5e 00 19 0a                             f.f.^...

0000006e <show_data>:
      6e:	6e 00 6e 00 66 00 02 0a                             n.n.f...

00000076 <year>:
      76:	76 00 76 00 6e 00 d7 09                             v.v.n...

0000007e <month>:
      7e:	7e 00 7e 00 76 00 a1 09                             ~.~.v...

00000086 <day>:
      86:	86 00 86 00 7e 00 58 09                             ....~.X.

0000008e <minuts>:
      8e:	8e 00 8e 00 86 00 0d 09                             ........

00000096 <hours>:
      96:	96 00 96 00 8e 00 af 08                             ........

0000009e <am_pm>:
      9e:	9e 00 9e 00 96 00 82 08                             ........

000000a6 <Main_menu>:
      a6:	ae 00 ae 00 ae 00 45 08                             ......E.

000000ae <NULL_MENU>:
	...

000000b6 <__ctors_end>:
      b6:	11 24       	eor	r1, r1
      b8:	1f be       	out	0x3f, r1	; 63
      ba:	cf e5       	ldi	r28, 0x5F	; 95
      bc:	d4 e0       	ldi	r29, 0x04	; 4
      be:	de bf       	out	0x3e, r29	; 62
      c0:	cd bf       	out	0x3d, r28	; 61

000000c2 <__do_copy_data>:
      c2:	10 e0       	ldi	r17, 0x00	; 0
      c4:	a0 e6       	ldi	r26, 0x60	; 96
      c6:	b0 e0       	ldi	r27, 0x00	; 0
      c8:	e6 e3       	ldi	r30, 0x36	; 54
      ca:	fb e1       	ldi	r31, 0x1B	; 27
      cc:	02 c0       	rjmp	.+4      	; 0xd2 <__do_copy_data+0x10>
      ce:	05 90       	lpm	r0, Z+
      d0:	0d 92       	st	X+, r0
      d2:	ac 36       	cpi	r26, 0x6C	; 108
      d4:	b1 07       	cpc	r27, r17
      d6:	d9 f7       	brne	.-10     	; 0xce <__do_copy_data+0xc>

000000d8 <__do_clear_bss>:
      d8:	20 e0       	ldi	r18, 0x00	; 0
      da:	ac e6       	ldi	r26, 0x6C	; 108
      dc:	b0 e0       	ldi	r27, 0x00	; 0
      de:	01 c0       	rjmp	.+2      	; 0xe2 <.do_clear_bss_start>

000000e0 <.do_clear_bss_loop>:
      e0:	1d 92       	st	X+, r1

000000e2 <.do_clear_bss_start>:
      e2:	a9 3c       	cpi	r26, 0xC9	; 201
      e4:	b2 07       	cpc	r27, r18
      e6:	e1 f7       	brne	.-8      	; 0xe0 <.do_clear_bss_loop>
      e8:	02 d6       	rcall	.+3076   	; 0xcee <main>
      ea:	23 cd       	rjmp	.-1466   	; 0xfffffb32 <__eeprom_end+0xff7efb1b>

000000ec <__bad_interrupt>:
      ec:	89 cf       	rjmp	.-238    	; 0x0 <__vectors>

000000ee <start_buzzer>:
/************************************************************************/
void start_buzzer(void)
{
	static uint8_t buzz_count;
	volatile static uint16_t delay_buzz;
	if (GetTick() - delay_buzz >= 3)
      ee:	e1 db       	rcall	.-2110   	; 0xfffff8b2 <__eeprom_end+0xff7ef89b>
      f0:	20 91 6d 00 	lds	r18, 0x006D	; 0x80006d <delay_buzz.1786>
      f4:	30 91 6e 00 	lds	r19, 0x006E	; 0x80006e <delay_buzz.1786+0x1>
      f8:	82 1b       	sub	r24, r18
      fa:	93 0b       	sbc	r25, r19
      fc:	03 97       	sbiw	r24, 0x03	; 3
      fe:	a0 f1       	brcs	.+104    	; 0x168 <start_buzzer+0x7a>
	{
		delay_buzz = GetTick();
     100:	d8 db       	rcall	.-2128   	; 0xfffff8b2 <__eeprom_end+0xff7ef89b>
     102:	90 93 6e 00 	sts	0x006E, r25	; 0x80006e <delay_buzz.1786+0x1>
     106:	80 93 6d 00 	sts	0x006D, r24	; 0x80006d <delay_buzz.1786>
		buzz_count++;
     10a:	80 91 6c 00 	lds	r24, 0x006C	; 0x80006c <__data_end>
     10e:	8f 5f       	subi	r24, 0xFF	; 255
     110:	80 93 6c 00 	sts	0x006C, r24	; 0x80006c <__data_end>
		BUZZ_ON;
     114:	95 9a       	sbi	0x12, 5	; 18
		if (buzz_count>20){BUZZ_OFF;}
     116:	80 91 6c 00 	lds	r24, 0x006C	; 0x80006c <__data_end>
     11a:	85 31       	cpi	r24, 0x15	; 21
     11c:	08 f0       	brcs	.+2      	; 0x120 <start_buzzer+0x32>
     11e:	95 98       	cbi	0x12, 5	; 18
		if (buzz_count>40){BUZZ_ON;}
     120:	80 91 6c 00 	lds	r24, 0x006C	; 0x80006c <__data_end>
     124:	89 32       	cpi	r24, 0x29	; 41
     126:	08 f0       	brcs	.+2      	; 0x12a <start_buzzer+0x3c>
     128:	95 9a       	sbi	0x12, 5	; 18
		if (buzz_count>60){BUZZ_OFF;}
     12a:	80 91 6c 00 	lds	r24, 0x006C	; 0x80006c <__data_end>
     12e:	8d 33       	cpi	r24, 0x3D	; 61
     130:	08 f0       	brcs	.+2      	; 0x134 <start_buzzer+0x46>
     132:	95 98       	cbi	0x12, 5	; 18
		if (buzz_count>80){BUZZ_ON;}
     134:	80 91 6c 00 	lds	r24, 0x006C	; 0x80006c <__data_end>
     138:	81 35       	cpi	r24, 0x51	; 81
     13a:	08 f0       	brcs	.+2      	; 0x13e <start_buzzer+0x50>
     13c:	95 9a       	sbi	0x12, 5	; 18
		if (buzz_count>100){BUZZ_OFF;}
     13e:	80 91 6c 00 	lds	r24, 0x006C	; 0x80006c <__data_end>
     142:	85 36       	cpi	r24, 0x65	; 101
     144:	08 f0       	brcs	.+2      	; 0x148 <start_buzzer+0x5a>
     146:	95 98       	cbi	0x12, 5	; 18
		if (buzz_count>120){BUZZ_ON;}
     148:	80 91 6c 00 	lds	r24, 0x006C	; 0x80006c <__data_end>
     14c:	89 37       	cpi	r24, 0x79	; 121
     14e:	08 f0       	brcs	.+2      	; 0x152 <start_buzzer+0x64>
     150:	95 9a       	sbi	0x12, 5	; 18
		if (buzz_count>140){BUZZ_OFF;}
     152:	80 91 6c 00 	lds	r24, 0x006C	; 0x80006c <__data_end>
     156:	8d 38       	cpi	r24, 0x8D	; 141
     158:	08 f0       	brcs	.+2      	; 0x15c <start_buzzer+0x6e>
     15a:	95 98       	cbi	0x12, 5	; 18
		if (buzz_count==255){buzz_count=0;}
     15c:	80 91 6c 00 	lds	r24, 0x006C	; 0x80006c <__data_end>
     160:	8f 3f       	cpi	r24, 0xFF	; 255
     162:	11 f4       	brne	.+4      	; 0x168 <start_buzzer+0x7a>
     164:	10 92 6c 00 	sts	0x006C, r1	; 0x80006c <__data_end>
     168:	08 95       	ret

0000016a <stop_buzzer>:
/************************************************************************/
/*                       Остановка пищалки                              */
/************************************************************************/
uint8_t stop_buzzer(void)
{
	BUZZ_OFF;
     16a:	95 98       	cbi	0x12, 5	; 18
	return 0;
}
     16c:	80 e0       	ldi	r24, 0x00	; 0
     16e:	08 95       	ret

00000170 <GetButtonPress>:
	volatile static uint16_t push_count=0;       //счетчик удержания кнопок, флаг удержания
	static uint8_t push_flag = 0;
 	static uint8_t button_count = 0;
	static uint8_t button_state = 0; 
	
 	if(GetTick() != time)
     170:	a0 db       	rcall	.-2240   	; 0xfffff8b2 <__eeprom_end+0xff7ef89b>
     172:	20 91 74 00 	lds	r18, 0x0074	; 0x800074 <time.1632>
     176:	30 91 75 00 	lds	r19, 0x0075	; 0x800075 <time.1632+0x1>
     17a:	82 17       	cp	r24, r18
     17c:	93 07       	cpc	r25, r19
     17e:	09 f4       	brne	.+2      	; 0x182 <GetButtonPress+0x12>
     180:	5e c0       	rjmp	.+188    	; 0x23e <__EEPROM_REGION_LENGTH__+0x3e>
 	{
 		if(BUTTON_PRESS != 0x0E )
     182:	93 b3       	in	r25, 0x13	; 19
     184:	9e 70       	andi	r25, 0x0E	; 14
     186:	80 91 73 00 	lds	r24, 0x0073	; 0x800073 <button_count.1635>
     18a:	9e 30       	cpi	r25, 0x0E	; 14
     18c:	99 f1       	breq	.+102    	; 0x1f4 <GetButtonPress+0x84>
 		{
 			if (button_count < 25) button_count++;	//счетчик дребезгов при нажатии в мс
     18e:	89 31       	cpi	r24, 0x19	; 25
     190:	18 f4       	brcc	.+6      	; 0x198 <GetButtonPress+0x28>
     192:	8f 5f       	subi	r24, 0xFF	; 255
     194:	80 93 73 00 	sts	0x0073, r24	; 0x800073 <button_count.1635>
 			if (button_count == 25)
     198:	80 91 73 00 	lds	r24, 0x0073	; 0x800073 <button_count.1635>
     19c:	89 31       	cpi	r24, 0x19	; 25
     19e:	09 f0       	breq	.+2      	; 0x1a2 <GetButtonPress+0x32>
     1a0:	49 c0       	rjmp	.+146    	; 0x234 <__EEPROM_REGION_LENGTH__+0x34>
 			{
				button_state = BUTTON_PRESS;		//зафиксировали сосотояние кнопок
     1a2:	83 b3       	in	r24, 0x13	; 19
     1a4:	8e 70       	andi	r24, 0x0E	; 14
     1a6:	80 93 72 00 	sts	0x0072, r24	; 0x800072 <button_state.1636>
  				if (push_count < 500) push_count++;
     1aa:	20 91 70 00 	lds	r18, 0x0070	; 0x800070 <push_count.1633>
     1ae:	30 91 71 00 	lds	r19, 0x0071	; 0x800071 <push_count.1633+0x1>
     1b2:	24 3f       	cpi	r18, 0xF4	; 244
     1b4:	31 40       	sbci	r19, 0x01	; 1
     1b6:	50 f4       	brcc	.+20     	; 0x1cc <GetButtonPress+0x5c>
     1b8:	20 91 70 00 	lds	r18, 0x0070	; 0x800070 <push_count.1633>
     1bc:	30 91 71 00 	lds	r19, 0x0071	; 0x800071 <push_count.1633+0x1>
     1c0:	2f 5f       	subi	r18, 0xFF	; 255
     1c2:	3f 4f       	sbci	r19, 0xFF	; 255
     1c4:	30 93 71 00 	sts	0x0071, r19	; 0x800071 <push_count.1633+0x1>
     1c8:	20 93 70 00 	sts	0x0070, r18	; 0x800070 <push_count.1633>
 				if (push_count == 499)		//срабатывание при удержанием
     1cc:	20 91 70 00 	lds	r18, 0x0070	; 0x800070 <push_count.1633>
     1d0:	30 91 71 00 	lds	r19, 0x0071	; 0x800071 <push_count.1633+0x1>
     1d4:	23 3f       	cpi	r18, 0xF3	; 243
     1d6:	31 40       	sbci	r19, 0x01	; 1
     1d8:	69 f5       	brne	.+90     	; 0x234 <__EEPROM_REGION_LENGTH__+0x34>
 				{
 					push_flag = 1;
     1da:	91 e0       	ldi	r25, 0x01	; 1
     1dc:	90 93 6f 00 	sts	0x006F, r25	; 0x80006f <push_flag.1634>
 					switch(button_state)
     1e0:	8a 30       	cpi	r24, 0x0A	; 10
     1e2:	79 f1       	breq	.+94     	; 0x242 <__EEPROM_REGION_LENGTH__+0x42>
     1e4:	8c 30       	cpi	r24, 0x0C	; 12
     1e6:	21 f0       	breq	.+8      	; 0x1f0 <GetButtonPress+0x80>
     1e8:	86 30       	cpi	r24, 0x06	; 6
     1ea:	21 f5       	brne	.+72     	; 0x234 <__EEPROM_REGION_LENGTH__+0x34>
 					{
	 					case 0x0A: return BUTTON_ENTER_PUSH; break;
	 					case 0x0C: return BUTTON_MINUS_PUSH; break;
	 					case 0x06: return BUTTON_PLUS_PUSH; break;
     1ec:	83 e0       	ldi	r24, 0x03	; 3
     1ee:	08 95       	ret
 				{
 					push_flag = 1;
 					switch(button_state)
 					{
	 					case 0x0A: return BUTTON_ENTER_PUSH; break;
	 					case 0x0C: return BUTTON_MINUS_PUSH; break;
     1f0:	84 e0       	ldi	r24, 0x04	; 4
     1f2:	08 95       	ret
 				}
			}
 		}
 		else
 		{
 			if (button_count > 0)	//счетчик дребезгов при отжатии
     1f4:	88 23       	and	r24, r24
     1f6:	f1 f0       	breq	.+60     	; 0x234 <__EEPROM_REGION_LENGTH__+0x34>
			{
				 button_count--; 
     1f8:	81 50       	subi	r24, 0x01	; 1
     1fa:	80 93 73 00 	sts	0x0073, r24	; 0x800073 <button_count.1635>
				 push_count = 0;
     1fe:	10 92 71 00 	sts	0x0071, r1	; 0x800071 <push_count.1633+0x1>
     202:	10 92 70 00 	sts	0x0070, r1	; 0x800070 <push_count.1633>
				 if (button_count == 0)	//короткое срабатывание при спадающем фронте
     206:	81 11       	cpse	r24, r1
     208:	15 c0       	rjmp	.+42     	; 0x234 <__EEPROM_REGION_LENGTH__+0x34>
				 {
					 if (push_flag == 1)	push_flag = 0;		//если было срабатывание при удержании кнопки, то выходим из функции
     20a:	80 91 6f 00 	lds	r24, 0x006F	; 0x80006f <push_flag.1634>
     20e:	81 30       	cpi	r24, 0x01	; 1
     210:	19 f4       	brne	.+6      	; 0x218 <__EEPROM_REGION_LENGTH__+0x18>
     212:	10 92 6f 00 	sts	0x006F, r1	; 0x80006f <push_flag.1634>
     216:	0e c0       	rjmp	.+28     	; 0x234 <__EEPROM_REGION_LENGTH__+0x34>
					 else	//иначе - обработать короткое нажатие
					 {
						 switch(button_state)	//если состояние зафиксировалось при нажатии, то кнопка сработает при отжатии
     218:	80 91 72 00 	lds	r24, 0x0072	; 0x800072 <button_state.1636>
     21c:	8a 30       	cpi	r24, 0x0A	; 10
     21e:	99 f0       	breq	.+38     	; 0x246 <__EEPROM_REGION_LENGTH__+0x46>
     220:	8c 30       	cpi	r24, 0x0C	; 12
     222:	21 f0       	breq	.+8      	; 0x22c <__EEPROM_REGION_LENGTH__+0x2c>
     224:	86 30       	cpi	r24, 0x06	; 6
     226:	21 f4       	brne	.+8      	; 0x230 <__EEPROM_REGION_LENGTH__+0x30>
						 {
							 case 0x0A: return BUTTON_ENTER; break;
							 case 0x0C: return BUTTON_MINUS; break;
							 case 0x06: return BUTTON_PLUS; break;
     228:	80 e0       	ldi	r24, 0x00	; 0
     22a:	08 95       	ret
					 else	//иначе - обработать короткое нажатие
					 {
						 switch(button_state)	//если состояние зафиксировалось при нажатии, то кнопка сработает при отжатии
						 {
							 case 0x0A: return BUTTON_ENTER; break;
							 case 0x0C: return BUTTON_MINUS; break;
     22c:	81 e0       	ldi	r24, 0x01	; 1
     22e:	08 95       	ret
							 case 0x06: return BUTTON_PLUS; break;
							 default: break;
						 }
						 button_state = 0;
     230:	10 92 72 00 	sts	0x0072, r1	; 0x800072 <button_state.1636>
					 }
				 }
			}
		}
		time = GetTick();
     234:	3e db       	rcall	.-2436   	; 0xfffff8b2 <__eeprom_end+0xff7ef89b>
     236:	90 93 75 00 	sts	0x0075, r25	; 0x800075 <time.1632+0x1>
     23a:	80 93 74 00 	sts	0x0074, r24	; 0x800074 <time.1632>
 	}	
	return BUTTON_NONE;
     23e:	86 e0       	ldi	r24, 0x06	; 6
     240:	08 95       	ret
 				if (push_count == 499)		//срабатывание при удержанием
 				{
 					push_flag = 1;
 					switch(button_state)
 					{
	 					case 0x0A: return BUTTON_ENTER_PUSH; break;
     242:	85 e0       	ldi	r24, 0x05	; 5
     244:	08 95       	ret
					 if (push_flag == 1)	push_flag = 0;		//если было срабатывание при удержании кнопки, то выходим из функции
					 else	//иначе - обработать короткое нажатие
					 {
						 switch(button_state)	//если состояние зафиксировалось при нажатии, то кнопка сработает при отжатии
						 {
							 case 0x0A: return BUTTON_ENTER; break;
     246:	82 e0       	ldi	r24, 0x02	; 2
			}
		}
		time = GetTick();
 	}	
	return BUTTON_NONE;
     248:	08 95       	ret

0000024a <therm_reset>:

// сброс датчика
static uint8_t therm_reset(void)
{	 
	uint8_t i;
	cli(); //запретить прерывания
     24a:	f8 94       	cli
	// опускаем ногу вниз на 480uS
	THERM_LOW();
     24c:	94 98       	cbi	0x12, 4	; 18
	THERM_OUTPUT_MODE();
     24e:	8c 9a       	sbi	0x11, 4	; 17
	#else
		//round up by default
		__ticks_dc = (uint32_t)(ceil(fabs(__tmp)));
	#endif

	__builtin_avr_delay_cycles(__ticks_dc);
     250:	8f e7       	ldi	r24, 0x7F	; 127
     252:	97 e0       	ldi	r25, 0x07	; 7
     254:	01 97       	sbiw	r24, 0x01	; 1
     256:	f1 f7       	brne	.-4      	; 0x254 <therm_reset+0xa>
     258:	00 c0       	rjmp	.+0      	; 0x25a <therm_reset+0x10>
     25a:	00 00       	nop
	_delay_us(480);
	// подымаем линию на 60uS
	THERM_INPUT_MODE();
     25c:	8c 98       	cbi	0x11, 4	; 17
     25e:	ef ee       	ldi	r30, 0xEF	; 239
     260:	f0 e0       	ldi	r31, 0x00	; 0
     262:	31 97       	sbiw	r30, 0x01	; 1
     264:	f1 f7       	brne	.-4      	; 0x262 <therm_reset+0x18>
     266:	00 c0       	rjmp	.+0      	; 0x268 <therm_reset+0x1e>
     268:	00 00       	nop
	_delay_us(60);
	// получаем значение на линии в период 480uS
	i=(THERM_PIN & (1<<THERM_DQ));
     26a:	80 b3       	in	r24, 0x10	; 16
     26c:	ef e8       	ldi	r30, 0x8F	; 143
     26e:	f6 e0       	ldi	r31, 0x06	; 6
     270:	31 97       	sbiw	r30, 0x01	; 1
     272:	f1 f7       	brne	.-4      	; 0x270 <therm_reset+0x26>
     274:	00 c0       	rjmp	.+0      	; 0x276 <therm_reset+0x2c>
     276:	00 00       	nop
	_delay_us(420); //- по даташиту 420
	// возвращаем значение (0=OK, 1=датчик не найден)
	sei();
     278:	78 94       	sei
	return i;
}
     27a:	80 71       	andi	r24, 0x10	; 16
     27c:	08 95       	ret

0000027e <therm_read_byte>:
}

// читаем байт
static uint8_t therm_read_byte(void){
	uint8_t i=8, n=0;
	while(i--){
     27e:	99 e0       	ldi	r25, 0x09	; 9
	return bit;
}

// читаем байт
static uint8_t therm_read_byte(void){
	uint8_t i=8, n=0;
     280:	80 e0       	ldi	r24, 0x00	; 0
     282:	91 50       	subi	r25, 0x01	; 1
	while(i--){
     284:	f1 f0       	breq	.+60     	; 0x2c2 <therm_read_byte+0x44>
}

// чтение бита
static uint8_t therm_read_bit(void){
	uint8_t bit=0;
	cli();  //запретить прерывания
     286:	f8 94       	cli
	// опускаем на 1uS
	THERM_LOW();
     288:	94 98       	cbi	0x12, 4	; 18
	THERM_OUTPUT_MODE();
     28a:	8c 9a       	sbi	0x11, 4	; 17
     28c:	25 e0       	ldi	r18, 0x05	; 5
     28e:	2a 95       	dec	r18
     290:	f1 f7       	brne	.-4      	; 0x28e <therm_read_byte+0x10>
     292:	00 00       	nop
	_delay_us(1);
	// поднимаем на 14uS
	THERM_INPUT_MODE();
     294:	8c 98       	cbi	0x11, 4	; 17
     296:	2a e4       	ldi	r18, 0x4A	; 74
     298:	2a 95       	dec	r18
     29a:	f1 f7       	brne	.-4      	; 0x298 <therm_read_byte+0x1a>
     29c:	00 c0       	rjmp	.+0      	; 0x29e <therm_read_byte+0x20>
	_delay_us(14);
	// читаем состояние
	if(THERM_PIN&(1<<THERM_DQ)) bit=1;
     29e:	40 b3       	in	r20, 0x10	; 16
     2a0:	20 ef       	ldi	r18, 0xF0	; 240
     2a2:	2a 95       	dec	r18
     2a4:	f1 f7       	brne	.-4      	; 0x2a2 <therm_read_byte+0x24>
	// ждем 45 мкс и возвращаем значение
	_delay_us(45);
	sei();
     2a6:	78 94       	sei
static uint8_t therm_read_byte(void){
	uint8_t i=8, n=0;
	while(i--){
		// сдвигаем в право на 1 и сохраняем следующее значение
		n>>=1;
		n|=(therm_read_bit()<<7);
     2a8:	44 fb       	bst	r20, 4
     2aa:	22 27       	eor	r18, r18
     2ac:	20 f9       	bld	r18, 0
     2ae:	30 e0       	ldi	r19, 0x00	; 0
     2b0:	a9 01       	movw	r20, r18
     2b2:	56 95       	lsr	r21
     2b4:	54 2f       	mov	r21, r20
     2b6:	44 27       	eor	r20, r20
     2b8:	57 95       	ror	r21
     2ba:	47 95       	ror	r20
     2bc:	86 95       	lsr	r24
     2be:	84 2b       	or	r24, r20
     2c0:	e0 cf       	rjmp	.-64     	; 0x282 <therm_read_byte+0x4>
	}
	return n;
}
     2c2:	08 95       	ret

000002c4 <therm_write_byte>:

// отправляем байт
static void therm_write_byte(uint8_t byte){
	uint8_t i=8;
	while(i--){
     2c4:	99 e0       	ldi	r25, 0x09	; 9
     2c6:	91 50       	subi	r25, 0x01	; 1
     2c8:	b9 f0       	breq	.+46     	; 0x2f8 <therm_write_byte+0x34>
}

// функция отправки бита
static void therm_write_bit(uint8_t bit){
	// опускаем на 1uS
	cli();  //запретить прерывания
     2ca:	f8 94       	cli
	THERM_LOW();
     2cc:	94 98       	cbi	0x12, 4	; 18
	THERM_OUTPUT_MODE();
     2ce:	8c 9a       	sbi	0x11, 4	; 17
     2d0:	25 e0       	ldi	r18, 0x05	; 5
     2d2:	2a 95       	dec	r18
     2d4:	f1 f7       	brne	.-4      	; 0x2d2 <therm_write_byte+0xe>
     2d6:	00 00       	nop
	_delay_us(1);
	// если хотим отправить 1, поднимаем линию (если нет, оставляем как есть)
	if(bit) THERM_INPUT_MODE();
     2d8:	80 fd       	sbrc	r24, 0
     2da:	8c 98       	cbi	0x11, 4	; 17
     2dc:	ef ee       	ldi	r30, 0xEF	; 239
     2de:	f0 e0       	ldi	r31, 0x00	; 0
     2e0:	31 97       	sbiw	r30, 0x01	; 1
     2e2:	f1 f7       	brne	.-4      	; 0x2e0 <therm_write_byte+0x1c>
     2e4:	00 c0       	rjmp	.+0      	; 0x2e6 <therm_write_byte+0x22>
     2e6:	00 00       	nop
	// ждем 60uS и поднимаем линию
	_delay_us(60);
	THERM_INPUT_MODE();
     2e8:	8c 98       	cbi	0x11, 4	; 17
	sei();
     2ea:	78 94       	sei
static void therm_write_byte(uint8_t byte){
	uint8_t i=8;
	while(i--){
		// отправляем бит и сдвигаем вправо на 1
		therm_write_bit(byte&1);
		byte>>=1;
     2ec:	86 95       	lsr	r24
     2ee:	f5 e0       	ldi	r31, 0x05	; 5
     2f0:	fa 95       	dec	r31
     2f2:	f1 f7       	brne	.-4      	; 0x2f0 <therm_write_byte+0x2c>
     2f4:	00 00       	nop
     2f6:	e7 cf       	rjmp	.-50     	; 0x2c6 <therm_write_byte+0x2>
		_delay_us(1);
	}
}
     2f8:	08 95       	ret

000002fa <therm_start_convert>:
/************************************************************************/
/*				  Команда на преобразование температуры				    */
/************************************************************************/
uint8_t therm_start_convert(void)
{	
	if (!therm_reset()) //если датчик найден, то показать температуру
     2fa:	a7 df       	rcall	.-178    	; 0x24a <therm_reset>
     2fc:	81 11       	cpse	r24, r1
     2fe:	06 c0       	rjmp	.+12     	; 0x30c <therm_start_convert+0x12>
	{
		therm_write_byte(THERM_CMD_SKIPROM);  //обращаемся к датчику с любым ROM
     300:	8c ec       	ldi	r24, 0xCC	; 204
     302:	e0 df       	rcall	.-64     	; 0x2c4 <therm_write_byte>
		therm_write_byte(THERM_CMD_CONVERTTEMP);  //команда на преобразование
     304:	84 e4       	ldi	r24, 0x44	; 68
     306:	de df       	rcall	.-68     	; 0x2c4 <therm_write_byte>
		return 1;
     308:	81 e0       	ldi	r24, 0x01	; 1
     30a:	08 95       	ret
	}
	else	return 0;    //если датчик не найдет, то вернуть 0
     30c:	80 e0       	ldi	r24, 0x00	; 0
}
     30e:	08 95       	ret

00000310 <therm_read_temperature>:
/************************************************************************/
/*				Чтение температуры и форматирование данных		        */
/************************************************************************/
void therm_read_temperature(uint16_t *temperature)  //датчик 1-wire ds18b20
{
     310:	0f 93       	push	r16
     312:	1f 93       	push	r17
     314:	cf 93       	push	r28
     316:	df 93       	push	r29
     318:	8c 01       	movw	r16, r24
	uint8_t LSB,MSB;
	
	therm_reset(); //сброс для прекращения передачи данных
     31a:	97 df       	rcall	.-210    	; 0x24a <therm_reset>
	therm_write_byte(THERM_CMD_SKIPROM);
     31c:	8c ec       	ldi	r24, 0xCC	; 204
     31e:	d2 df       	rcall	.-92     	; 0x2c4 <therm_write_byte>
	therm_write_byte(THERM_CMD_RSCRATCHPAD);  //чтение памяти
     320:	8e eb       	ldi	r24, 0xBE	; 190
     322:	d0 df       	rcall	.-96     	; 0x2c4 <therm_write_byte>
	LSB = therm_read_byte();
     324:	ac df       	rcall	.-168    	; 0x27e <therm_read_byte>
     326:	d8 2f       	mov	r29, r24
	MSB = therm_read_byte();
     328:	aa df       	rcall	.-172    	; 0x27e <therm_read_byte>
     32a:	c8 2f       	mov	r28, r24
	therm_reset(); //сброс для прекращения передачи данных
     32c:	8e df       	rcall	.-228    	; 0x24a <therm_reset>

	if ((MSB & 0x80) != 0)  //если отрицательная темп. то показать нули
     32e:	c7 ff       	sbrs	r28, 7
     330:	04 c0       	rjmp	.+8      	; 0x33a <therm_read_temperature+0x2a>
	{
		*temperature = 0;
     332:	f8 01       	movw	r30, r16
     334:	11 82       	std	Z+1, r1	; 0x01
     336:	10 82       	st	Z, r1
		return;
     338:	20 c0       	rjmp	.+64     	; 0x37a <therm_read_temperature+0x6a>
	}				//+500 - округление в большую сторону
	*temperature = (((LSB & 0x0F)*THERM_DECIMAL_STEPS_12BIT+500)/1000) + ((((LSB & 0xF0)>>4)|(MSB<<4)) *10); //преобразование в десятые градусов 25,5 = 255  
     33a:	4d 2f       	mov	r20, r29
     33c:	4f 70       	andi	r20, 0x0F	; 15
     33e:	21 e7       	ldi	r18, 0x71	; 113
     340:	32 e0       	ldi	r19, 0x02	; 2
     342:	42 9f       	mul	r20, r18
     344:	c0 01       	movw	r24, r0
     346:	43 9f       	mul	r20, r19
     348:	90 0d       	add	r25, r0
     34a:	11 24       	eor	r1, r1
     34c:	8c 50       	subi	r24, 0x0C	; 12
     34e:	9e 4f       	sbci	r25, 0xFE	; 254
     350:	68 ee       	ldi	r22, 0xE8	; 232
     352:	73 e0       	ldi	r23, 0x03	; 3
     354:	54 db       	rcall	.-2392   	; 0xfffff9fe <__eeprom_end+0xff7ef9e7>
     356:	d2 95       	swap	r29
     358:	df 70       	andi	r29, 0x0F	; 15
     35a:	f0 e1       	ldi	r31, 0x10	; 16
     35c:	cf 9f       	mul	r28, r31
     35e:	c0 01       	movw	r24, r0
     360:	11 24       	eor	r1, r1
     362:	8d 2b       	or	r24, r29
     364:	4a e0       	ldi	r20, 0x0A	; 10
     366:	48 9f       	mul	r20, r24
     368:	90 01       	movw	r18, r0
     36a:	49 9f       	mul	r20, r25
     36c:	30 0d       	add	r19, r0
     36e:	11 24       	eor	r1, r1
     370:	62 0f       	add	r22, r18
     372:	73 1f       	adc	r23, r19
     374:	f8 01       	movw	r30, r16
     376:	71 83       	std	Z+1, r23	; 0x01
     378:	60 83       	st	Z, r22
	return;
}
     37a:	df 91       	pop	r29
     37c:	cf 91       	pop	r28
     37e:	1f 91       	pop	r17
     380:	0f 91       	pop	r16
     382:	08 95       	ret

00000384 <read_eeprom>:
/************************************************************************/
/*			Чтение настроек из EEPROM, если память чистая,				*/
/*					то запишет стандартные настройки					*/
/************************************************************************/
void read_eeprom(void)
{	
     384:	0f 93       	push	r16
     386:	1f 93       	push	r17
     388:	cf 93       	push	r28
     38a:	df 93       	push	r29
	uint16_t control_key = 0x1234;
	//проверка ключа в eeprom
	if (control_key != eeprom_read_word(& key_eeprom))  //если не совпал, то записать исходные данные
     38c:	83 e1       	ldi	r24, 0x13	; 19
     38e:	90 e0       	ldi	r25, 0x00	; 0
     390:	ab db       	rcall	.-2218   	; 0xfffffae8 <__eeprom_end+0xff7efad1>
     392:	84 33       	cpi	r24, 0x34	; 52
     394:	92 41       	sbci	r25, 0x12	; 18
     396:	09 f4       	brne	.+2      	; 0x39a <read_eeprom+0x16>
     398:	43 c0       	rjmp	.+134    	; 0x420 <__DATA_REGION_LENGTH__+0x20>
	{
		PORTB&=0xf0;      //отключаем аноды
     39a:	88 b3       	in	r24, 0x18	; 24
     39c:	80 7f       	andi	r24, 0xF0	; 240
     39e:	88 bb       	out	0x18, r24	; 24
		PORTD&=0xf0;      //отключаем катоды
     3a0:	82 b3       	in	r24, 0x12	; 18
     3a2:	80 7f       	andi	r24, 0xF0	; 240
     3a4:	82 bb       	out	0x12, r24	; 18
     3a6:	c0 e0       	ldi	r28, 0x00	; 0
     3a8:	d0 e0       	ldi	r29, 0x00	; 0
	
		for (uint8_t i=0;i<4;i++)
		{
			eeprom_write_byte(& setting_eeprom[i], 7);     //часы
     3aa:	67 e0       	ldi	r22, 0x07	; 7
     3ac:	ce 01       	movw	r24, r28
     3ae:	a1 db       	rcall	.-2238   	; 0xfffffaf2 <__eeprom_end+0xff7efadb>
			eeprom_write_byte(& setting_eeprom[i+4], 30);	//минуты
     3b0:	6e e1       	ldi	r22, 0x1E	; 30
     3b2:	ce 01       	movw	r24, r28
     3b4:	04 96       	adiw	r24, 0x04	; 4
     3b6:	9d db       	rcall	.-2246   	; 0xfffffaf2 <__eeprom_end+0xff7efadb>
			eeprom_write_byte(& setting_eeprom[i+8], 0);	//статус
     3b8:	60 e0       	ldi	r22, 0x00	; 0
     3ba:	ce 01       	movw	r24, r28
     3bc:	08 96       	adiw	r24, 0x08	; 8
     3be:	99 db       	rcall	.-2254   	; 0xfffffaf2 <__eeprom_end+0xff7efadb>
     3c0:	21 96       	adiw	r28, 0x01	; 1
	if (control_key != eeprom_read_word(& key_eeprom))  //если не совпал, то записать исходные данные
	{
		PORTB&=0xf0;      //отключаем аноды
		PORTD&=0xf0;      //отключаем катоды
	
		for (uint8_t i=0;i<4;i++)
     3c2:	80 e0       	ldi	r24, 0x00	; 0
     3c4:	c4 30       	cpi	r28, 0x04	; 4
     3c6:	d8 07       	cpc	r29, r24
     3c8:	81 f7       	brne	.-32     	; 0x3aa <read_eeprom+0x26>
		{
			eeprom_write_byte(& setting_eeprom[i], 7);     //часы
			eeprom_write_byte(& setting_eeprom[i+4], 30);	//минуты
			eeprom_write_byte(& setting_eeprom[i+8], 0);	//статус
		}
		eeprom_write_byte(& setting_eeprom[12], 0);	//отображение температуры
     3ca:	60 e0       	ldi	r22, 0x00	; 0
     3cc:	8c e0       	ldi	r24, 0x0C	; 12
     3ce:	90 e0       	ldi	r25, 0x00	; 0
     3d0:	90 db       	rcall	.-2272   	; 0xfffffaf2 <__eeprom_end+0xff7efadb>
		eeprom_write_byte(& setting_eeprom[13], 0);	//отображение даты
     3d2:	60 e0       	ldi	r22, 0x00	; 0
     3d4:	8d e0       	ldi	r24, 0x0D	; 13
     3d6:	90 e0       	ldi	r25, 0x00	; 0
     3d8:	8c db       	rcall	.-2280   	; 0xfffffaf2 <__eeprom_end+0xff7efadb>
		eeprom_write_byte(& setting_eeprom[14], 0);	//режим 24/12
     3da:	60 e0       	ldi	r22, 0x00	; 0
     3dc:	8e e0       	ldi	r24, 0x0E	; 14
     3de:	90 e0       	ldi	r25, 0x00	; 0
     3e0:	88 db       	rcall	.-2288   	; 0xfffffaf2 <__eeprom_end+0xff7efadb>
		eeprom_write_byte(& setting_eeprom[15], 1);	//режим подсветки
     3e2:	61 e0       	ldi	r22, 0x01	; 1
     3e4:	8f e0       	ldi	r24, 0x0F	; 15
     3e6:	90 e0       	ldi	r25, 0x00	; 0
     3e8:	84 db       	rcall	.-2296   	; 0xfffffaf2 <__eeprom_end+0xff7efadb>
		eeprom_write_byte(& setting_eeprom[16], 1);	//скорость подсветки
     3ea:	61 e0       	ldi	r22, 0x01	; 1
     3ec:	80 e1       	ldi	r24, 0x10	; 16
     3ee:	90 e0       	ldi	r25, 0x00	; 0
     3f0:	80 db       	rcall	.-2304   	; 0xfffffaf2 <__eeprom_end+0xff7efadb>
		eeprom_write_byte(& setting_eeprom[17], 1);	//яркость подсветки
     3f2:	61 e0       	ldi	r22, 0x01	; 1
     3f4:	81 e1       	ldi	r24, 0x11	; 17
     3f6:	90 e0       	ldi	r25, 0x00	; 0
     3f8:	7c db       	rcall	.-2312   	; 0xfffffaf2 <__eeprom_end+0xff7efadb>
		eeprom_write_byte(& correction_eeprom, 0);	//коррекция времени
     3fa:	60 e0       	ldi	r22, 0x00	; 0
     3fc:	82 e1       	ldi	r24, 0x12	; 18
     3fe:	90 e0       	ldi	r25, 0x00	; 0
     400:	78 db       	rcall	.-2320   	; 0xfffffaf2 <__eeprom_end+0xff7efadb>
		eeprom_write_word(& color_eeprom, 0);	//угол цвета
     402:	60 e0       	ldi	r22, 0x00	; 0
     404:	70 e0       	ldi	r23, 0x00	; 0
     406:	85 e1       	ldi	r24, 0x15	; 21
     408:	90 e0       	ldi	r25, 0x00	; 0
     40a:	80 db       	rcall	.-2304   	; 0xfffffb0c <__eeprom_end+0xff7efaf5>
		eeprom_write_word((uint16_t *)50, 0);  //ячейка содержащее количество сбросов по watchdog (для тестировки)
     40c:	60 e0       	ldi	r22, 0x00	; 0
     40e:	70 e0       	ldi	r23, 0x00	; 0
     410:	82 e3       	ldi	r24, 0x32	; 50
     412:	90 e0       	ldi	r25, 0x00	; 0
     414:	7b db       	rcall	.-2314   	; 0xfffffb0c <__eeprom_end+0xff7efaf5>
		eeprom_write_word(& key_eeprom, control_key);  //после инициализации EEPROM записать ключ
     416:	64 e3       	ldi	r22, 0x34	; 52
     418:	72 e1       	ldi	r23, 0x12	; 18
     41a:	83 e1       	ldi	r24, 0x13	; 19
     41c:	90 e0       	ldi	r25, 0x00	; 0
     41e:	76 db       	rcall	.-2324   	; 0xfffffb0c <__eeprom_end+0xff7efaf5>
     420:	00 e0       	ldi	r16, 0x00	; 0
     422:	10 e0       	ldi	r17, 0x00	; 0
     424:	c3 e9       	ldi	r28, 0x93	; 147
     426:	d0 e0       	ldi	r29, 0x00	; 0
	}
	//чтение данных
	for (uint8_t i=0;i<4;i++)
	{
		Alarm[i].Al_hour = eeprom_read_byte(& setting_eeprom[i]);
     428:	c8 01       	movw	r24, r16
     42a:	56 db       	rcall	.-2388   	; 0xfffffad8 <__eeprom_end+0xff7efac1>
     42c:	88 83       	st	Y, r24
		Alarm[i].Al_min = eeprom_read_byte(& setting_eeprom[i+4]);
     42e:	c8 01       	movw	r24, r16
     430:	04 96       	adiw	r24, 0x04	; 4
     432:	52 db       	rcall	.-2396   	; 0xfffffad8 <__eeprom_end+0xff7efac1>
     434:	89 83       	std	Y+1, r24	; 0x01
		Alarm[i].Al_status = eeprom_read_byte(& setting_eeprom[i+8]);
     436:	c8 01       	movw	r24, r16
     438:	08 96       	adiw	r24, 0x08	; 8
     43a:	4e db       	rcall	.-2404   	; 0xfffffad8 <__eeprom_end+0xff7efac1>
     43c:	8a 83       	std	Y+2, r24	; 0x02
     43e:	0f 5f       	subi	r16, 0xFF	; 255
     440:	1f 4f       	sbci	r17, 0xFF	; 255
     442:	23 96       	adiw	r28, 0x03	; 3
		eeprom_write_word(& color_eeprom, 0);	//угол цвета
		eeprom_write_word((uint16_t *)50, 0);  //ячейка содержащее количество сбросов по watchdog (для тестировки)
		eeprom_write_word(& key_eeprom, control_key);  //после инициализации EEPROM записать ключ
	}
	//чтение данных
	for (uint8_t i=0;i<4;i++)
     444:	20 e0       	ldi	r18, 0x00	; 0
     446:	cf 39       	cpi	r28, 0x9F	; 159
     448:	d2 07       	cpc	r29, r18
     44a:	71 f7       	brne	.-36     	; 0x428 <__DATA_REGION_LENGTH__+0x28>
	{
		Alarm[i].Al_hour = eeprom_read_byte(& setting_eeprom[i]);
		Alarm[i].Al_min = eeprom_read_byte(& setting_eeprom[i+4]);
		Alarm[i].Al_status = eeprom_read_byte(& setting_eeprom[i+8]);
	}
	Time.temp_on = eeprom_read_byte(& setting_eeprom[12]);
     44c:	8c e0       	ldi	r24, 0x0C	; 12
     44e:	90 e0       	ldi	r25, 0x00	; 0
     450:	43 db       	rcall	.-2426   	; 0xfffffad8 <__eeprom_end+0xff7efac1>
     452:	80 93 bd 00 	sts	0x00BD, r24	; 0x8000bd <Time+0x7>
	Time.data_on = eeprom_read_byte(& setting_eeprom[13]);
     456:	8d e0       	ldi	r24, 0x0D	; 13
     458:	90 e0       	ldi	r25, 0x00	; 0
     45a:	3e db       	rcall	.-2436   	; 0xfffffad8 <__eeprom_end+0xff7efac1>
     45c:	80 93 bc 00 	sts	0x00BC, r24	; 0x8000bc <Time+0x6>
	Time.am_pm = eeprom_read_byte(& setting_eeprom[14]);
     460:	8e e0       	ldi	r24, 0x0E	; 14
     462:	90 e0       	ldi	r25, 0x00	; 0
     464:	39 db       	rcall	.-2446   	; 0xfffffad8 <__eeprom_end+0xff7efac1>
     466:	80 93 be 00 	sts	0x00BE, r24	; 0x8000be <Time+0x8>
	LED.mode = eeprom_read_byte(& setting_eeprom[15]);
     46a:	8f e0       	ldi	r24, 0x0F	; 15
     46c:	90 e0       	ldi	r25, 0x00	; 0
     46e:	34 db       	rcall	.-2456   	; 0xfffffad8 <__eeprom_end+0xff7efac1>
     470:	80 93 b3 00 	sts	0x00B3, r24	; 0x8000b3 <LED>
	LED.speed = eeprom_read_byte(& setting_eeprom[16]);
     474:	80 e1       	ldi	r24, 0x10	; 16
     476:	90 e0       	ldi	r25, 0x00	; 0
     478:	2f db       	rcall	.-2466   	; 0xfffffad8 <__eeprom_end+0xff7efac1>
     47a:	80 93 b4 00 	sts	0x00B4, r24	; 0x8000b4 <LED+0x1>
	LED.bright = eeprom_read_byte(& setting_eeprom[17]);
     47e:	81 e1       	ldi	r24, 0x11	; 17
     480:	90 e0       	ldi	r25, 0x00	; 0
     482:	2a db       	rcall	.-2476   	; 0xfffffad8 <__eeprom_end+0xff7efac1>
     484:	80 93 b5 00 	sts	0x00B5, r24	; 0x8000b5 <LED+0x2>
	Time.Correct_sec = (int8_t) eeprom_read_byte(& correction_eeprom);
     488:	82 e1       	ldi	r24, 0x12	; 18
     48a:	90 e0       	ldi	r25, 0x00	; 0
     48c:	25 db       	rcall	.-2486   	; 0xfffffad8 <__eeprom_end+0xff7efac1>
     48e:	80 93 bf 00 	sts	0x00BF, r24	; 0x8000bf <Time+0x9>
	color_angle=eeprom_read_word(& color_eeprom);	
     492:	85 e1       	ldi	r24, 0x15	; 21
     494:	90 e0       	ldi	r25, 0x00	; 0
     496:	28 db       	rcall	.-2480   	; 0xfffffae8 <__eeprom_end+0xff7efad1>
     498:	90 93 ad 00 	sts	0x00AD, r25	; 0x8000ad <color_angle+0x1>
     49c:	80 93 ac 00 	sts	0x00AC, r24	; 0x8000ac <color_angle>
}
     4a0:	df 91       	pop	r29
     4a2:	cf 91       	pop	r28
     4a4:	1f 91       	pop	r17
     4a6:	0f 91       	pop	r16
     4a8:	08 95       	ret

000004aa <save_to_eeprom>:
/************************************************************************/
/*			Сохранение изменненых настроек в EEPROM                     */
/************************************************************************/
void save_to_eeprom(void)
{
     4aa:	af 92       	push	r10
     4ac:	bf 92       	push	r11
     4ae:	df 92       	push	r13
     4b0:	ef 92       	push	r14
     4b2:	ff 92       	push	r15
     4b4:	0f 93       	push	r16
     4b6:	1f 93       	push	r17
     4b8:	cf 93       	push	r28
     4ba:	df 93       	push	r29
	PORTB&=0xf0;      //отключаем аноды
     4bc:	88 b3       	in	r24, 0x18	; 24
     4be:	80 7f       	andi	r24, 0xF0	; 240
     4c0:	88 bb       	out	0x18, r24	; 24
	PORTD&=0xf0;      //отключаем катоды
     4c2:	82 b3       	in	r24, 0x12	; 18
     4c4:	80 7f       	andi	r24, 0xF0	; 240
     4c6:	82 bb       	out	0x12, r24	; 18
     4c8:	c3 e9       	ldi	r28, 0x93	; 147
     4ca:	d0 e0       	ldi	r29, 0x00	; 0
     4cc:	00 e0       	ldi	r16, 0x00	; 0
     4ce:	10 e0       	ldi	r17, 0x00	; 0
     4d0:	8f e9       	ldi	r24, 0x9F	; 159
     4d2:	a8 2e       	mov	r10, r24
     4d4:	80 e0       	ldi	r24, 0x00	; 0
     4d6:	b8 2e       	mov	r11, r24
	
	for (uint8_t i=0;i<4;i++)
	{
		if (Alarm[i].Al_hour != eeprom_read_byte(& setting_eeprom[i]))		eeprom_write_byte(& setting_eeprom[i], Alarm[i].Al_hour);
     4d8:	f8 80       	ld	r15, Y
     4da:	c8 01       	movw	r24, r16
     4dc:	fd da       	rcall	.-2566   	; 0xfffffad8 <__eeprom_end+0xff7efac1>
     4de:	f8 16       	cp	r15, r24
     4e0:	19 f0       	breq	.+6      	; 0x4e8 <save_to_eeprom+0x3e>
     4e2:	6f 2d       	mov	r22, r15
     4e4:	c8 01       	movw	r24, r16
     4e6:	05 db       	rcall	.-2550   	; 0xfffffaf2 <__eeprom_end+0xff7efadb>
		if (Alarm[i].Al_min != eeprom_read_byte(& setting_eeprom[i+4]))	eeprom_write_byte(& setting_eeprom[i+4], Alarm[i].Al_min);
     4e8:	d9 80       	ldd	r13, Y+1	; 0x01
     4ea:	78 01       	movw	r14, r16
     4ec:	84 e0       	ldi	r24, 0x04	; 4
     4ee:	e8 0e       	add	r14, r24
     4f0:	f1 1c       	adc	r15, r1
     4f2:	c7 01       	movw	r24, r14
     4f4:	f1 da       	rcall	.-2590   	; 0xfffffad8 <__eeprom_end+0xff7efac1>
     4f6:	d8 16       	cp	r13, r24
     4f8:	19 f0       	breq	.+6      	; 0x500 <save_to_eeprom+0x56>
     4fa:	6d 2d       	mov	r22, r13
     4fc:	c7 01       	movw	r24, r14
     4fe:	f9 da       	rcall	.-2574   	; 0xfffffaf2 <__eeprom_end+0xff7efadb>
		if (Alarm[i].Al_status != eeprom_read_byte(& setting_eeprom[i+8])) eeprom_write_byte(& setting_eeprom[i+8], Alarm[i].Al_status);
     500:	da 80       	ldd	r13, Y+2	; 0x02
     502:	78 01       	movw	r14, r16
     504:	88 e0       	ldi	r24, 0x08	; 8
     506:	e8 0e       	add	r14, r24
     508:	f1 1c       	adc	r15, r1
     50a:	c7 01       	movw	r24, r14
     50c:	e5 da       	rcall	.-2614   	; 0xfffffad8 <__eeprom_end+0xff7efac1>
     50e:	d8 16       	cp	r13, r24
     510:	19 f0       	breq	.+6      	; 0x518 <save_to_eeprom+0x6e>
     512:	6d 2d       	mov	r22, r13
     514:	c7 01       	movw	r24, r14
     516:	ed da       	rcall	.-2598   	; 0xfffffaf2 <__eeprom_end+0xff7efadb>
     518:	23 96       	adiw	r28, 0x03	; 3
     51a:	0f 5f       	subi	r16, 0xFF	; 255
     51c:	1f 4f       	sbci	r17, 0xFF	; 255
void save_to_eeprom(void)
{
	PORTB&=0xf0;      //отключаем аноды
	PORTD&=0xf0;      //отключаем катоды
	
	for (uint8_t i=0;i<4;i++)
     51e:	ac 16       	cp	r10, r28
     520:	bd 06       	cpc	r11, r29
     522:	d1 f6       	brne	.-76     	; 0x4d8 <save_to_eeprom+0x2e>
	{
		if (Alarm[i].Al_hour != eeprom_read_byte(& setting_eeprom[i]))		eeprom_write_byte(& setting_eeprom[i], Alarm[i].Al_hour);
		if (Alarm[i].Al_min != eeprom_read_byte(& setting_eeprom[i+4]))	eeprom_write_byte(& setting_eeprom[i+4], Alarm[i].Al_min);
		if (Alarm[i].Al_status != eeprom_read_byte(& setting_eeprom[i+8])) eeprom_write_byte(& setting_eeprom[i+8], Alarm[i].Al_status);
	}
	if (Time.temp_on != eeprom_read_byte(& setting_eeprom[12]))	eeprom_write_byte(& setting_eeprom[12], Time.temp_on);
     524:	c0 91 bd 00 	lds	r28, 0x00BD	; 0x8000bd <Time+0x7>
     528:	8c e0       	ldi	r24, 0x0C	; 12
     52a:	90 e0       	ldi	r25, 0x00	; 0
     52c:	d5 da       	rcall	.-2646   	; 0xfffffad8 <__eeprom_end+0xff7efac1>
     52e:	c8 17       	cp	r28, r24
     530:	21 f0       	breq	.+8      	; 0x53a <save_to_eeprom+0x90>
     532:	6c 2f       	mov	r22, r28
     534:	8c e0       	ldi	r24, 0x0C	; 12
     536:	90 e0       	ldi	r25, 0x00	; 0
     538:	dc da       	rcall	.-2632   	; 0xfffffaf2 <__eeprom_end+0xff7efadb>
	if (Time.data_on != eeprom_read_byte(& setting_eeprom[13]))	eeprom_write_byte(& setting_eeprom[13], Time.data_on);
     53a:	c0 91 bc 00 	lds	r28, 0x00BC	; 0x8000bc <Time+0x6>
     53e:	8d e0       	ldi	r24, 0x0D	; 13
     540:	90 e0       	ldi	r25, 0x00	; 0
     542:	ca da       	rcall	.-2668   	; 0xfffffad8 <__eeprom_end+0xff7efac1>
     544:	c8 17       	cp	r28, r24
     546:	21 f0       	breq	.+8      	; 0x550 <save_to_eeprom+0xa6>
     548:	6c 2f       	mov	r22, r28
     54a:	8d e0       	ldi	r24, 0x0D	; 13
     54c:	90 e0       	ldi	r25, 0x00	; 0
     54e:	d1 da       	rcall	.-2654   	; 0xfffffaf2 <__eeprom_end+0xff7efadb>
	if (Time.am_pm != eeprom_read_byte(& setting_eeprom[14]))		eeprom_write_byte(& setting_eeprom[14], Time.am_pm);
     550:	c0 91 be 00 	lds	r28, 0x00BE	; 0x8000be <Time+0x8>
     554:	8e e0       	ldi	r24, 0x0E	; 14
     556:	90 e0       	ldi	r25, 0x00	; 0
     558:	bf da       	rcall	.-2690   	; 0xfffffad8 <__eeprom_end+0xff7efac1>
     55a:	c8 17       	cp	r28, r24
     55c:	21 f0       	breq	.+8      	; 0x566 <save_to_eeprom+0xbc>
     55e:	6c 2f       	mov	r22, r28
     560:	8e e0       	ldi	r24, 0x0E	; 14
     562:	90 e0       	ldi	r25, 0x00	; 0
     564:	c6 da       	rcall	.-2676   	; 0xfffffaf2 <__eeprom_end+0xff7efadb>
	if (LED.mode != eeprom_read_byte(& setting_eeprom[15]))		eeprom_write_byte(& setting_eeprom[15], LED.mode);
     566:	c0 91 b3 00 	lds	r28, 0x00B3	; 0x8000b3 <LED>
     56a:	8f e0       	ldi	r24, 0x0F	; 15
     56c:	90 e0       	ldi	r25, 0x00	; 0
     56e:	b4 da       	rcall	.-2712   	; 0xfffffad8 <__eeprom_end+0xff7efac1>
     570:	c8 17       	cp	r28, r24
     572:	21 f0       	breq	.+8      	; 0x57c <save_to_eeprom+0xd2>
     574:	6c 2f       	mov	r22, r28
     576:	8f e0       	ldi	r24, 0x0F	; 15
     578:	90 e0       	ldi	r25, 0x00	; 0
     57a:	bb da       	rcall	.-2698   	; 0xfffffaf2 <__eeprom_end+0xff7efadb>
	if (LED.speed != eeprom_read_byte(& setting_eeprom[16]))		eeprom_write_byte(& setting_eeprom[16], LED.speed);
     57c:	c0 91 b4 00 	lds	r28, 0x00B4	; 0x8000b4 <LED+0x1>
     580:	80 e1       	ldi	r24, 0x10	; 16
     582:	90 e0       	ldi	r25, 0x00	; 0
     584:	a9 da       	rcall	.-2734   	; 0xfffffad8 <__eeprom_end+0xff7efac1>
     586:	c8 17       	cp	r28, r24
     588:	21 f0       	breq	.+8      	; 0x592 <save_to_eeprom+0xe8>
     58a:	6c 2f       	mov	r22, r28
     58c:	80 e1       	ldi	r24, 0x10	; 16
     58e:	90 e0       	ldi	r25, 0x00	; 0
     590:	b0 da       	rcall	.-2720   	; 0xfffffaf2 <__eeprom_end+0xff7efadb>
	if (LED.bright != eeprom_read_byte(& setting_eeprom[17]))		eeprom_write_byte(& setting_eeprom[17], LED.bright);
     592:	c0 91 b5 00 	lds	r28, 0x00B5	; 0x8000b5 <LED+0x2>
     596:	81 e1       	ldi	r24, 0x11	; 17
     598:	90 e0       	ldi	r25, 0x00	; 0
     59a:	9e da       	rcall	.-2756   	; 0xfffffad8 <__eeprom_end+0xff7efac1>
     59c:	c8 17       	cp	r28, r24
     59e:	21 f0       	breq	.+8      	; 0x5a8 <save_to_eeprom+0xfe>
     5a0:	6c 2f       	mov	r22, r28
     5a2:	81 e1       	ldi	r24, 0x11	; 17
     5a4:	90 e0       	ldi	r25, 0x00	; 0
     5a6:	a5 da       	rcall	.-2742   	; 0xfffffaf2 <__eeprom_end+0xff7efadb>
	if (Time.Correct_sec != (int8_t)eeprom_read_byte(& correction_eeprom))	eeprom_write_byte(& correction_eeprom, (uint8_t)Time.Correct_sec);
     5a8:	c0 91 bf 00 	lds	r28, 0x00BF	; 0x8000bf <Time+0x9>
     5ac:	82 e1       	ldi	r24, 0x12	; 18
     5ae:	90 e0       	ldi	r25, 0x00	; 0
     5b0:	93 da       	rcall	.-2778   	; 0xfffffad8 <__eeprom_end+0xff7efac1>
     5b2:	c8 17       	cp	r28, r24
     5b4:	69 f0       	breq	.+26     	; 0x5d0 <save_to_eeprom+0x126>
     5b6:	6c 2f       	mov	r22, r28
     5b8:	82 e1       	ldi	r24, 0x12	; 18
     5ba:	90 e0       	ldi	r25, 0x00	; 0
}
     5bc:	df 91       	pop	r29
     5be:	cf 91       	pop	r28
     5c0:	1f 91       	pop	r17
     5c2:	0f 91       	pop	r16
     5c4:	ff 90       	pop	r15
     5c6:	ef 90       	pop	r14
     5c8:	df 90       	pop	r13
     5ca:	bf 90       	pop	r11
     5cc:	af 90       	pop	r10
	if (Time.data_on != eeprom_read_byte(& setting_eeprom[13]))	eeprom_write_byte(& setting_eeprom[13], Time.data_on);
	if (Time.am_pm != eeprom_read_byte(& setting_eeprom[14]))		eeprom_write_byte(& setting_eeprom[14], Time.am_pm);
	if (LED.mode != eeprom_read_byte(& setting_eeprom[15]))		eeprom_write_byte(& setting_eeprom[15], LED.mode);
	if (LED.speed != eeprom_read_byte(& setting_eeprom[16]))		eeprom_write_byte(& setting_eeprom[16], LED.speed);
	if (LED.bright != eeprom_read_byte(& setting_eeprom[17]))		eeprom_write_byte(& setting_eeprom[17], LED.bright);
	if (Time.Correct_sec != (int8_t)eeprom_read_byte(& correction_eeprom))	eeprom_write_byte(& correction_eeprom, (uint8_t)Time.Correct_sec);
     5ce:	91 ca       	rjmp	.-2782   	; 0xfffffaf2 <__eeprom_end+0xff7efadb>
}
     5d0:	df 91       	pop	r29
     5d2:	cf 91       	pop	r28
     5d4:	1f 91       	pop	r17
     5d6:	0f 91       	pop	r16
     5d8:	ff 90       	pop	r15
     5da:	ef 90       	pop	r14
     5dc:	df 90       	pop	r13
     5de:	bf 90       	pop	r11
     5e0:	af 90       	pop	r10
     5e2:	08 95       	ret

000005e4 <__vector_3>:

/************************************************************************/
/*					Таймер обработки динамической индикации		        */
/************************************************************************/
ISR (TIMER2_COMP_vect)//Прерывание таймера обработки динамической индикации
{
     5e4:	1f 92       	push	r1
     5e6:	0f 92       	push	r0
     5e8:	0f b6       	in	r0, 0x3f	; 63
     5ea:	0f 92       	push	r0
     5ec:	11 24       	eor	r1, r1
     5ee:	2f 93       	push	r18
     5f0:	3f 93       	push	r19
     5f2:	4f 93       	push	r20
     5f4:	8f 93       	push	r24
     5f6:	9f 93       	push	r25
     5f8:	af 93       	push	r26
     5fa:	bf 93       	push	r27
     5fc:	ef 93       	push	r30
     5fe:	ff 93       	push	r31
	static uint8_t counter_blink;		//счетчик
	static uint8_t show_indicator_flag;	//отображать число на лампе, если 1. Нужен, чтобы моргать настраиваемым параметром в режиме настройки
	static uint8_t Number;				//определяет с каким индикатоом работать в данный момент
		
	PORTB&=0xf0;	//отключаем аноды
     600:	88 b3       	in	r24, 0x18	; 24
     602:	80 7f       	andi	r24, 0xF0	; 240
     604:	88 bb       	out	0x18, r24	; 24
	PORTD&=0xf0;	//отключаем катоды
     606:	82 b3       	in	r24, 0x12	; 18
     608:	80 7f       	andi	r24, 0xF0	; 240
     60a:	82 bb       	out	0x12, r24	; 18
	POINTS_OFF;		//отключаем точки в индикаторах
     60c:	96 98       	cbi	0x12, 6	; 18
     60e:	8f e8       	ldi	r24, 0x8F	; 143
     610:	91 e0       	ldi	r25, 0x01	; 1
     612:	01 97       	sbiw	r24, 0x01	; 1
     614:	f1 f7       	brne	.-4      	; 0x612 <__vector_3+0x2e>
     616:	00 c0       	rjmp	.+0      	; 0x618 <__vector_3+0x34>
     618:	00 00       	nop
	_delay_us(100);	//dead time для микросхемы дешифратора. Некоторые микросхемы без этой задержки делают засветки не нужных цифр в лампах
	counter_blink++;	//счетчик и условия на моргание цифрой в режиме настройки
     61a:	80 91 78 00 	lds	r24, 0x0078	; 0x800078 <counter_blink.2072>
     61e:	8f 5f       	subi	r24, 0xFF	; 255
     620:	80 93 78 00 	sts	0x0078, r24	; 0x800078 <counter_blink.2072>
	if(counter_blink == 50)		 show_indicator_flag = 1;
     624:	82 33       	cpi	r24, 0x32	; 50
     626:	21 f4       	brne	.+8      	; 0x630 <__vector_3+0x4c>
     628:	81 e0       	ldi	r24, 0x01	; 1
     62a:	80 93 77 00 	sts	0x0077, r24	; 0x800077 <show_indicator_flag.2073>
     62e:	06 c0       	rjmp	.+12     	; 0x63c <__vector_3+0x58>
	if(counter_blink == 100)	{show_indicator_flag = 0; counter_blink = 0;}
     630:	84 36       	cpi	r24, 0x64	; 100
     632:	21 f4       	brne	.+8      	; 0x63c <__vector_3+0x58>
     634:	10 92 77 00 	sts	0x0077, r1	; 0x800077 <show_indicator_flag.2073>
     638:	10 92 78 00 	sts	0x0078, r1	; 0x800078 <counter_blink.2072>
	
	if ((Ind[Number].blink && show_indicator_flag) || (!Ind[Number].blink))  //если show_indicator_flag=1, то отображаем цифру
     63c:	80 91 76 00 	lds	r24, 0x0076	; 0x800076 <Number.2074>
     640:	90 e0       	ldi	r25, 0x00	; 0
     642:	fc 01       	movw	r30, r24
     644:	ee 0f       	add	r30, r30
     646:	ff 1f       	adc	r31, r31
     648:	df 01       	movw	r26, r30
     64a:	a8 0f       	add	r26, r24
     64c:	b9 1f       	adc	r27, r25
     64e:	a1 56       	subi	r26, 0x61	; 97
     650:	bf 4f       	sbci	r27, 0xFF	; 255
     652:	11 96       	adiw	r26, 0x01	; 1
     654:	2c 91       	ld	r18, X
     656:	22 23       	and	r18, r18
     658:	21 f0       	breq	.+8      	; 0x662 <__vector_3+0x7e>
     65a:	20 91 77 00 	lds	r18, 0x0077	; 0x800077 <show_indicator_flag.2073>
     65e:	22 23       	and	r18, r18
     660:	a1 f1       	breq	.+104    	; 0x6ca <__vector_3+0xe6>
	{
		PORTD|=Ind[Number].lamp;	//выдаем на микросхему дешифратора число
     662:	22 b3       	in	r18, 0x12	; 18
     664:	8e 0f       	add	r24, r30
     666:	9f 1f       	adc	r25, r31
     668:	fc 01       	movw	r30, r24
     66a:	e1 56       	subi	r30, 0x61	; 97
     66c:	ff 4f       	sbci	r31, 0xFF	; 255
     66e:	80 81       	ld	r24, Z
     670:	82 2b       	or	r24, r18
     672:	82 bb       	out	0x12, r24	; 18
		PORTB|=(1<<(3-Number));		//подаем на анод высокое напряжение (3-Number) - инверсия индикаторов слева на право
     674:	48 b3       	in	r20, 0x18	; 24
     676:	80 91 76 00 	lds	r24, 0x0076	; 0x800076 <Number.2074>
     67a:	23 e0       	ldi	r18, 0x03	; 3
     67c:	30 e0       	ldi	r19, 0x00	; 0
     67e:	28 1b       	sub	r18, r24
     680:	31 09       	sbc	r19, r1
     682:	81 e0       	ldi	r24, 0x01	; 1
     684:	90 e0       	ldi	r25, 0x00	; 0
     686:	01 c0       	rjmp	.+2      	; 0x68a <__vector_3+0xa6>
     688:	88 0f       	add	r24, r24
     68a:	2a 95       	dec	r18
     68c:	ea f7       	brpl	.-6      	; 0x688 <__vector_3+0xa4>
     68e:	84 2b       	or	r24, r20
     690:	88 bb       	out	0x18, r24	; 24
		   //показывать точку в режиме перебора будильников  ИЛИ  показывать точку если не в режиме перебора будильников И если включен И не в режиме настроек
		if ((selectable_alarm_point&&(alarm_number==Number)) || (!selectable_alarm_point&&Alarm[Number].Al_status&&!no_points_global)) POINTS_ON;	
     692:	90 91 af 00 	lds	r25, 0x00AF	; 0x8000af <selectable_alarm_point>
     696:	80 91 76 00 	lds	r24, 0x0076	; 0x800076 <Number.2074>
     69a:	99 23       	and	r25, r25
     69c:	29 f0       	breq	.+10     	; 0x6a8 <__vector_3+0xc4>
     69e:	90 91 ab 00 	lds	r25, 0x00AB	; 0x8000ab <alarm_number>
     6a2:	98 13       	cpse	r25, r24
     6a4:	12 c0       	rjmp	.+36     	; 0x6ca <__vector_3+0xe6>
     6a6:	10 c0       	rjmp	.+32     	; 0x6c8 <__vector_3+0xe4>
     6a8:	90 e0       	ldi	r25, 0x00	; 0
     6aa:	fc 01       	movw	r30, r24
     6ac:	ee 0f       	add	r30, r30
     6ae:	ff 1f       	adc	r31, r31
     6b0:	8e 0f       	add	r24, r30
     6b2:	9f 1f       	adc	r25, r31
     6b4:	fc 01       	movw	r30, r24
     6b6:	ed 56       	subi	r30, 0x6D	; 109
     6b8:	ff 4f       	sbci	r31, 0xFF	; 255
     6ba:	82 81       	ldd	r24, Z+2	; 0x02
     6bc:	88 23       	and	r24, r24
     6be:	29 f0       	breq	.+10     	; 0x6ca <__vector_3+0xe6>
     6c0:	80 91 c0 00 	lds	r24, 0x00C0	; 0x8000c0 <no_points_global>
     6c4:	81 11       	cpse	r24, r1
     6c6:	01 c0       	rjmp	.+2      	; 0x6ca <__vector_3+0xe6>
     6c8:	96 9a       	sbi	0x12, 6	; 18
	}	
	Number++;	
     6ca:	80 91 76 00 	lds	r24, 0x0076	; 0x800076 <Number.2074>
     6ce:	8f 5f       	subi	r24, 0xFF	; 255
	if (Number == 4) Number = 0;
     6d0:	84 30       	cpi	r24, 0x04	; 4
     6d2:	19 f0       	breq	.+6      	; 0x6da <__vector_3+0xf6>
		PORTD|=Ind[Number].lamp;	//выдаем на микросхему дешифратора число
		PORTB|=(1<<(3-Number));		//подаем на анод высокое напряжение (3-Number) - инверсия индикаторов слева на право
		   //показывать точку в режиме перебора будильников  ИЛИ  показывать точку если не в режиме перебора будильников И если включен И не в режиме настроек
		if ((selectable_alarm_point&&(alarm_number==Number)) || (!selectable_alarm_point&&Alarm[Number].Al_status&&!no_points_global)) POINTS_ON;	
	}	
	Number++;	
     6d4:	80 93 76 00 	sts	0x0076, r24	; 0x800076 <Number.2074>
     6d8:	02 c0       	rjmp	.+4      	; 0x6de <__vector_3+0xfa>
	if (Number == 4) Number = 0;
     6da:	10 92 76 00 	sts	0x0076, r1	; 0x800076 <Number.2074>
}
     6de:	ff 91       	pop	r31
     6e0:	ef 91       	pop	r30
     6e2:	bf 91       	pop	r27
     6e4:	af 91       	pop	r26
     6e6:	9f 91       	pop	r25
     6e8:	8f 91       	pop	r24
     6ea:	4f 91       	pop	r20
     6ec:	3f 91       	pop	r19
     6ee:	2f 91       	pop	r18
     6f0:	0f 90       	pop	r0
     6f2:	0f be       	out	0x3f, r0	; 63
     6f4:	0f 90       	pop	r0
     6f6:	1f 90       	pop	r1
     6f8:	18 95       	reti

000006fa <indicators_init>:
/*           Настройка таймера динамической индикации                   */
/************************************************************************/
void indicators_init(void)
{
	//таймер для индикации
	TCCR2|=(1<<WGM21)|(1<<CS20)|(1<<CS21)|(1<<CS22); //Режим "Сброс при совпадении", делитель 1024
     6fa:	85 b5       	in	r24, 0x25	; 37
     6fc:	8f 60       	ori	r24, 0x0F	; 15
     6fe:	85 bd       	out	0x25, r24	; 37
	OCR2=50;    //50 - частота прерываний около 312,5 Гц или 78,125Гц на каждую лампу. 25 - 615 Гц, 153гц на одну лампу.
     700:	82 e3       	ldi	r24, 0x32	; 50
     702:	83 bd       	out	0x23, r24	; 35
	TIMSK|=(1<<OCIE2); //прерывание при сравнении
     704:	89 b7       	in	r24, 0x39	; 57
     706:	80 68       	ori	r24, 0x80	; 128
     708:	89 bf       	out	0x39, r24	; 57
     70a:	08 95       	ret

0000070c <hsvToRgb>:
// Converts a color from HSV to RGB.
// h is hue, as a number between 0 and 360.
// s is the saturation, as a number between 0 and 255.
// v is the value, as a number between 0 and 255.
static void hsvToRgb(uint16_t h, uint8_t *result)
{
     70c:	cf 92       	push	r12
     70e:	df 92       	push	r13
     710:	ef 92       	push	r14
     712:	ff 92       	push	r15
     714:	0f 93       	push	r16
     716:	1f 93       	push	r17
     718:	cf 93       	push	r28
     71a:	df 93       	push	r29
     71c:	fb 01       	movw	r30, r22
	uint8_t red, green, blue;  //переменные для задания цвета светодиодной подсветки
	uint8_t f = (h % 60) * 255 / 60;
	uint8_t p = 0;
	uint8_t q = (255 - f ) * value / 255;
     71e:	2c e3       	ldi	r18, 0x3C	; 60
     720:	30 e0       	ldi	r19, 0x00	; 0
     722:	b9 01       	movw	r22, r18
     724:	58 d9       	rcall	.-3408   	; 0xfffff9d6 <__eeprom_end+0xff7ef9bf>
     726:	6b 01       	movw	r12, r22
     728:	ac 01       	movw	r20, r24
     72a:	6f ef       	ldi	r22, 0xFF	; 255
     72c:	64 9f       	mul	r22, r20
     72e:	c0 01       	movw	r24, r0
     730:	65 9f       	mul	r22, r21
     732:	90 0d       	add	r25, r0
     734:	11 24       	eor	r1, r1
     736:	b9 01       	movw	r22, r18
     738:	4e d9       	rcall	.-3428   	; 0xfffff9d6 <__eeprom_end+0xff7ef9bf>
     73a:	7b 01       	movw	r14, r22
     73c:	20 91 7b 00 	lds	r18, 0x007B	; 0x80007b <value>
     740:	02 2f       	mov	r16, r18
     742:	10 e0       	ldi	r17, 0x00	; 0
     744:	cf ef       	ldi	r28, 0xFF	; 255
     746:	d0 e0       	ldi	r29, 0x00	; 0
     748:	ae 01       	movw	r20, r28
     74a:	46 1b       	sub	r20, r22
     74c:	57 0b       	sbc	r21, r23
     74e:	40 9f       	mul	r20, r16
     750:	c0 01       	movw	r24, r0
     752:	41 9f       	mul	r20, r17
     754:	90 0d       	add	r25, r0
     756:	50 9f       	mul	r21, r16
     758:	90 0d       	add	r25, r0
     75a:	11 24       	eor	r1, r1
     75c:	be 01       	movw	r22, r28
     75e:	4f d9       	rcall	.-3426   	; 0xfffff9fe <__eeprom_end+0xff7ef9e7>
     760:	46 2f       	mov	r20, r22
	uint8_t t = (255 - (255 - f)) * value / 255;
     762:	e0 9e       	mul	r14, r16
     764:	c0 01       	movw	r24, r0
     766:	e1 9e       	mul	r14, r17
     768:	90 0d       	add	r25, r0
     76a:	f0 9e       	mul	r15, r16
     76c:	90 0d       	add	r25, r0
     76e:	11 24       	eor	r1, r1
     770:	be 01       	movw	r22, r28
     772:	45 d9       	rcall	.-3446   	; 0xfffff9fe <__eeprom_end+0xff7ef9e7>
     774:	c6 2f       	mov	r28, r22
     776:	36 2f       	mov	r19, r22
	
	switch((h / 60) % 6)
     778:	c6 01       	movw	r24, r12
     77a:	66 e0       	ldi	r22, 0x06	; 6
     77c:	70 e0       	ldi	r23, 0x00	; 0
     77e:	2b d9       	rcall	.-3498   	; 0xfffff9d6 <__eeprom_end+0xff7ef9bf>
     780:	83 30       	cpi	r24, 0x03	; 3
     782:	91 05       	cpc	r25, r1
     784:	99 f0       	breq	.+38     	; 0x7ac <hsvToRgb+0xa0>
     786:	40 f4       	brcc	.+16     	; 0x798 <hsvToRgb+0x8c>
     788:	81 30       	cpi	r24, 0x01	; 1
     78a:	91 05       	cpc	r25, r1
     78c:	61 f0       	breq	.+24     	; 0x7a6 <hsvToRgb+0x9a>
     78e:	02 97       	sbiw	r24, 0x02	; 2
     790:	a9 f4       	brne	.+42     	; 0x7bc <hsvToRgb+0xb0>
	{
		case 0: red = value; green = t; blue = p; break;
		case 1: red = q; green = value; blue = p; break;
		case 2: red = p; green = value; blue = t; break;
     792:	8c 2f       	mov	r24, r28
     794:	32 2f       	mov	r19, r18
     796:	0c c0       	rjmp	.+24     	; 0x7b0 <hsvToRgb+0xa4>
	uint8_t f = (h % 60) * 255 / 60;
	uint8_t p = 0;
	uint8_t q = (255 - f ) * value / 255;
	uint8_t t = (255 - (255 - f)) * value / 255;
	
	switch((h / 60) % 6)
     798:	84 30       	cpi	r24, 0x04	; 4
     79a:	91 05       	cpc	r25, r1
     79c:	59 f0       	breq	.+22     	; 0x7b4 <hsvToRgb+0xa8>
     79e:	05 97       	sbiw	r24, 0x05	; 5
     7a0:	69 f4       	brne	.+26     	; 0x7bc <hsvToRgb+0xb0>
		case 0: red = value; green = t; blue = p; break;
		case 1: red = q; green = value; blue = p; break;
		case 2: red = p; green = value; blue = t; break;
		case 3: red = p; green = q; blue = value; break;
		case 4: red = t; green = p; blue = value; break;
		case 5: red = value; green = p; blue = q; break;
     7a2:	84 2f       	mov	r24, r20
     7a4:	09 c0       	rjmp	.+18     	; 0x7b8 <hsvToRgb+0xac>
	uint8_t t = (255 - (255 - f)) * value / 255;
	
	switch((h / 60) % 6)
	{
		case 0: red = value; green = t; blue = p; break;
		case 1: red = q; green = value; blue = p; break;
     7a6:	32 2f       	mov	r19, r18
     7a8:	24 2f       	mov	r18, r20
     7aa:	08 c0       	rjmp	.+16     	; 0x7bc <hsvToRgb+0xb0>
		case 2: red = p; green = value; blue = t; break;
		case 3: red = p; green = q; blue = value; break;
     7ac:	82 2f       	mov	r24, r18
     7ae:	34 2f       	mov	r19, r20
     7b0:	20 e0       	ldi	r18, 0x00	; 0
     7b2:	05 c0       	rjmp	.+10     	; 0x7be <hsvToRgb+0xb2>
		case 4: red = t; green = p; blue = value; break;
     7b4:	82 2f       	mov	r24, r18
     7b6:	2c 2f       	mov	r18, r28
		case 5: red = value; green = p; blue = q; break;
     7b8:	30 e0       	ldi	r19, 0x00	; 0
     7ba:	01 c0       	rjmp	.+2      	; 0x7be <hsvToRgb+0xb2>
	uint8_t q = (255 - f ) * value / 255;
	uint8_t t = (255 - (255 - f)) * value / 255;
	
	switch((h / 60) % 6)
	{
		case 0: red = value; green = t; blue = p; break;
     7bc:	80 e0       	ldi	r24, 0x00	; 0
		case 2: red = p; green = value; blue = t; break;
		case 3: red = p; green = q; blue = value; break;
		case 4: red = t; green = p; blue = value; break;
		case 5: red = value; green = p; blue = q; break;
	}	
	result[0] = green;
     7be:	30 83       	st	Z, r19
	result[1] = red;
     7c0:	21 83       	std	Z+1, r18	; 0x01
	result[2] = blue;
     7c2:	82 83       	std	Z+2, r24	; 0x02
     7c4:	df 91       	pop	r29
     7c6:	cf 91       	pop	r28
     7c8:	1f 91       	pop	r17
     7ca:	0f 91       	pop	r16
     7cc:	ff 90       	pop	r15
     7ce:	ef 90       	pop	r14
     7d0:	df 90       	pop	r13
     7d2:	cf 90       	pop	r12
     7d4:	08 95       	ret

000007d6 <led_processing>:
}
/************************************************************************/
/*			    Процесс вывода цвета на светодиоды			            */
/************************************************************************/
void led_processing(void)
{
     7d6:	ef 92       	push	r14
     7d8:	ff 92       	push	r15
     7da:	0f 93       	push	r16
     7dc:	1f 93       	push	r17
     7de:	cf 93       	push	r28
     7e0:	df 93       	push	r29
     7e2:	cd b7       	in	r28, 0x3d	; 61
     7e4:	de b7       	in	r29, 0x3e	; 62
     7e6:	2c 97       	sbiw	r28, 0x0c	; 12
     7e8:	0f b6       	in	r0, 0x3f	; 63
     7ea:	f8 94       	cli
     7ec:	de bf       	out	0x3e, r29	; 62
     7ee:	0f be       	out	0x3f, r0	; 63
     7f0:	cd bf       	out	0x3d, r28	; 61
	uint8_t RGB[12];
	switch(LED.mode)
     7f2:	80 91 b3 00 	lds	r24, 0x00B3	; 0x8000b3 <LED>
     7f6:	82 30       	cpi	r24, 0x02	; 2
     7f8:	69 f0       	breq	.+26     	; 0x814 <led_processing+0x3e>
     7fa:	83 30       	cpi	r24, 0x03	; 3
     7fc:	81 f1       	breq	.+96     	; 0x85e <led_processing+0x88>
     7fe:	81 30       	cpi	r24, 0x01	; 1
     800:	09 f0       	breq	.+2      	; 0x804 <led_processing+0x2e>
     802:	70 c0       	rjmp	.+224    	; 0x8e4 <led_processing+0x10e>
	{
		case 1:{//Режим 1 - без подсветки
					cli();
     804:	f8 94       	cli
     806:	1c e0       	ldi	r17, 0x0C	; 12
					for (uint8_t i=0; i<12; i++)
					{
						ws2812_send_byte(0);
     808:	80 e0       	ldi	r24, 0x00	; 0
     80a:	b4 d8       	rcall	.-3736   	; 0xfffff974 <__eeprom_end+0xff7ef95d>
     80c:	11 50       	subi	r17, 0x01	; 1
	uint8_t RGB[12];
	switch(LED.mode)
	{
		case 1:{//Режим 1 - без подсветки
					cli();
					for (uint8_t i=0; i<12; i++)
     80e:	e1 f7       	brne	.-8      	; 0x808 <led_processing+0x32>
					{
						ws2812_send_byte(0);
					}
					sei();
     810:	78 94       	sei
				};break;
     812:	68 c0       	rjmp	.+208    	; 0x8e4 <led_processing+0x10e>
		case 2:{//Режим 2 - монохромная подсветка
					hsvToRgb(color_angle, RGB);
     814:	be 01       	movw	r22, r28
     816:	6f 5f       	subi	r22, 0xFF	; 255
     818:	7f 4f       	sbci	r23, 0xFF	; 255
     81a:	80 91 ac 00 	lds	r24, 0x00AC	; 0x8000ac <color_angle>
     81e:	90 91 ad 00 	lds	r25, 0x00AD	; 0x8000ad <color_angle+0x1>
     822:	74 df       	rcall	.-280    	; 0x70c <hsvToRgb>
					cli();
     824:	f8 94       	cli
     826:	1c e0       	ldi	r17, 0x0C	; 12
					for (uint8_t l=0;l<12;l++)
					{
						for ( uint8_t i=0; i<3; i++)
						{
							ws2812_send_byte(RGB[i]);
     828:	89 81       	ldd	r24, Y+1	; 0x01
     82a:	a4 d8       	rcall	.-3768   	; 0xfffff974 <__eeprom_end+0xff7ef95d>
     82c:	8a 81       	ldd	r24, Y+2	; 0x02
     82e:	a2 d8       	rcall	.-3772   	; 0xfffff974 <__eeprom_end+0xff7ef95d>
     830:	8b 81       	ldd	r24, Y+3	; 0x03
     832:	a0 d8       	rcall	.-3776   	; 0xfffff974 <__eeprom_end+0xff7ef95d>
     834:	11 50       	subi	r17, 0x01	; 1
					sei();
				};break;
		case 2:{//Режим 2 - монохромная подсветка
					hsvToRgb(color_angle, RGB);
					cli();
					for (uint8_t l=0;l<12;l++)
     836:	c1 f7       	brne	.-16     	; 0x828 <led_processing+0x52>
						for ( uint8_t i=0; i<3; i++)
						{
							ws2812_send_byte(RGB[i]);
						}
					}
					sei();
     838:	78 94       	sei
					color_angle++;
     83a:	80 91 ac 00 	lds	r24, 0x00AC	; 0x8000ac <color_angle>
     83e:	90 91 ad 00 	lds	r25, 0x00AD	; 0x8000ad <color_angle+0x1>
     842:	01 96       	adiw	r24, 0x01	; 1
     844:	90 93 ad 00 	sts	0x00AD, r25	; 0x8000ad <color_angle+0x1>
     848:	80 93 ac 00 	sts	0x00AC, r24	; 0x8000ac <color_angle>
					if (color_angle==360)color_angle=0;
     84c:	88 36       	cpi	r24, 0x68	; 104
     84e:	91 40       	sbci	r25, 0x01	; 1
     850:	09 f0       	breq	.+2      	; 0x854 <led_processing+0x7e>
     852:	48 c0       	rjmp	.+144    	; 0x8e4 <led_processing+0x10e>
     854:	10 92 ad 00 	sts	0x00AD, r1	; 0x8000ad <color_angle+0x1>
     858:	10 92 ac 00 	sts	0x00AC, r1	; 0x8000ac <color_angle>
     85c:	43 c0       	rjmp	.+134    	; 0x8e4 <led_processing+0x10e>
				};break;
		case 3:{//Режим 3 - подсветка радуга
					hsvToRgb(color_angle, RGB);
     85e:	be 01       	movw	r22, r28
     860:	6f 5f       	subi	r22, 0xFF	; 255
     862:	7f 4f       	sbci	r23, 0xFF	; 255
     864:	80 91 ac 00 	lds	r24, 0x00AC	; 0x8000ac <color_angle>
     868:	90 91 ad 00 	lds	r25, 0x00AD	; 0x8000ad <color_angle+0x1>
     86c:	4f df       	rcall	.-354    	; 0x70c <hsvToRgb>
					hsvToRgb(color_angle+90, &RGB[3]);
     86e:	80 91 ac 00 	lds	r24, 0x00AC	; 0x8000ac <color_angle>
     872:	90 91 ad 00 	lds	r25, 0x00AD	; 0x8000ad <color_angle+0x1>
     876:	be 01       	movw	r22, r28
     878:	6c 5f       	subi	r22, 0xFC	; 252
     87a:	7f 4f       	sbci	r23, 0xFF	; 255
     87c:	86 5a       	subi	r24, 0xA6	; 166
     87e:	9f 4f       	sbci	r25, 0xFF	; 255
     880:	45 df       	rcall	.-374    	; 0x70c <hsvToRgb>
					hsvToRgb(color_angle+180, &RGB[6]);
     882:	80 91 ac 00 	lds	r24, 0x00AC	; 0x8000ac <color_angle>
     886:	90 91 ad 00 	lds	r25, 0x00AD	; 0x8000ad <color_angle+0x1>
     88a:	be 01       	movw	r22, r28
     88c:	69 5f       	subi	r22, 0xF9	; 249
     88e:	7f 4f       	sbci	r23, 0xFF	; 255
     890:	8c 54       	subi	r24, 0x4C	; 76
     892:	9f 4f       	sbci	r25, 0xFF	; 255
     894:	3b df       	rcall	.-394    	; 0x70c <hsvToRgb>
					hsvToRgb(color_angle+270, &RGB[9]);					
     896:	80 91 ac 00 	lds	r24, 0x00AC	; 0x8000ac <color_angle>
     89a:	90 91 ad 00 	lds	r25, 0x00AD	; 0x8000ad <color_angle+0x1>
     89e:	be 01       	movw	r22, r28
     8a0:	66 5f       	subi	r22, 0xF6	; 246
     8a2:	7f 4f       	sbci	r23, 0xFF	; 255
     8a4:	82 5f       	subi	r24, 0xF2	; 242
     8a6:	9e 4f       	sbci	r25, 0xFE	; 254
     8a8:	31 df       	rcall	.-414    	; 0x70c <hsvToRgb>
					cli();
     8aa:	f8 94       	cli
     8ac:	8e 01       	movw	r16, r28
     8ae:	0f 5f       	subi	r16, 0xFF	; 255
     8b0:	1f 4f       	sbci	r17, 0xFF	; 255
     8b2:	7e 01       	movw	r14, r28
     8b4:	8d e0       	ldi	r24, 0x0D	; 13
     8b6:	e8 0e       	add	r14, r24
     8b8:	f1 1c       	adc	r15, r1
					for (uint8_t i = 0; i<12; i++)
					{
						ws2812_send_byte(RGB[i]);
     8ba:	f8 01       	movw	r30, r16
     8bc:	81 91       	ld	r24, Z+
     8be:	8f 01       	movw	r16, r30
     8c0:	59 d8       	rcall	.-3918   	; 0xfffff974 <__eeprom_end+0xff7ef95d>
					hsvToRgb(color_angle, RGB);
					hsvToRgb(color_angle+90, &RGB[3]);
					hsvToRgb(color_angle+180, &RGB[6]);
					hsvToRgb(color_angle+270, &RGB[9]);					
					cli();
					for (uint8_t i = 0; i<12; i++)
     8c2:	0e 15       	cp	r16, r14
     8c4:	1f 05       	cpc	r17, r15
     8c6:	c9 f7       	brne	.-14     	; 0x8ba <led_processing+0xe4>
					{
						ws2812_send_byte(RGB[i]);
					}		
					sei();			
     8c8:	78 94       	sei
					color_angle++;
     8ca:	80 91 ac 00 	lds	r24, 0x00AC	; 0x8000ac <color_angle>
     8ce:	90 91 ad 00 	lds	r25, 0x00AD	; 0x8000ad <color_angle+0x1>
     8d2:	01 96       	adiw	r24, 0x01	; 1
     8d4:	90 93 ad 00 	sts	0x00AD, r25	; 0x8000ad <color_angle+0x1>
     8d8:	80 93 ac 00 	sts	0x00AC, r24	; 0x8000ac <color_angle>
					if (color_angle==360) color_angle=0;
     8dc:	88 36       	cpi	r24, 0x68	; 104
     8de:	91 40       	sbci	r25, 0x01	; 1
     8e0:	09 f4       	brne	.+2      	; 0x8e4 <led_processing+0x10e>
     8e2:	b8 cf       	rjmp	.-144    	; 0x854 <led_processing+0x7e>
				};break;
	}
}
     8e4:	2c 96       	adiw	r28, 0x0c	; 12
     8e6:	0f b6       	in	r0, 0x3f	; 63
     8e8:	f8 94       	cli
     8ea:	de bf       	out	0x3e, r29	; 62
     8ec:	0f be       	out	0x3f, r0	; 63
     8ee:	cd bf       	out	0x3d, r28	; 61
     8f0:	df 91       	pop	r29
     8f2:	cf 91       	pop	r28
     8f4:	1f 91       	pop	r17
     8f6:	0f 91       	pop	r16
     8f8:	ff 90       	pop	r15
     8fa:	ef 90       	pop	r14
     8fc:	08 95       	ret

000008fe <led_delay>:
/************************************************************************/
void led_delay(void)
{
	volatile static uint16_t current_delay; //счетчик текущей задержки
	
	if (GetTick() - current_delay >= delay_for_leds)
     8fe:	d9 d7       	rcall	.+4018   	; 0x18b2 <GetTick>
     900:	20 91 79 00 	lds	r18, 0x0079	; 0x800079 <current_delay.2075>
     904:	30 91 7a 00 	lds	r19, 0x007A	; 0x80007a <current_delay.2075+0x1>
     908:	82 1b       	sub	r24, r18
     90a:	93 0b       	sbc	r25, r19
     90c:	20 91 7c 00 	lds	r18, 0x007C	; 0x80007c <delay_for_leds>
     910:	30 91 7d 00 	lds	r19, 0x007D	; 0x80007d <delay_for_leds+0x1>
     914:	82 17       	cp	r24, r18
     916:	93 07       	cpc	r25, r19
     918:	30 f0       	brcs	.+12     	; 0x926 <led_delay+0x28>
	{
		current_delay = GetTick();
     91a:	cb d7       	rcall	.+3990   	; 0x18b2 <GetTick>
     91c:	90 93 7a 00 	sts	0x007A, r25	; 0x80007a <current_delay.2075+0x1>
     920:	80 93 79 00 	sts	0x0079, r24	; 0x800079 <current_delay.2075>
		led_processing();
     924:	58 cf       	rjmp	.-336    	; 0x7d6 <led_processing>
     926:	08 95       	ret

00000928 <led_config>:
/************************************************************************/
/*				     Конфигурация подсветки                             */
/************************************************************************/
void led_config(void)
{
	switch(LED.speed)   //мс, из расчета 360 вариаций цвета
     928:	80 91 b4 00 	lds	r24, 0x00B4	; 0x8000b4 <LED+0x1>
     92c:	83 30       	cpi	r24, 0x03	; 3
     92e:	91 f0       	breq	.+36     	; 0x954 <led_config+0x2c>
     930:	38 f4       	brcc	.+14     	; 0x940 <led_config+0x18>
     932:	81 30       	cpi	r24, 0x01	; 1
     934:	61 f0       	breq	.+24     	; 0x94e <led_config+0x26>
     936:	82 30       	cpi	r24, 0x02	; 2
     938:	b1 f4       	brne	.+44     	; 0x966 <led_config+0x3e>
	{
		case 1:{delay_for_leds = 28;};break;// 10 секунд   
		case 2:{delay_for_leds = 83;};break;// 30 секунд	
     93a:	83 e5       	ldi	r24, 0x53	; 83
     93c:	90 e0       	ldi	r25, 0x00	; 0
     93e:	0f c0       	rjmp	.+30     	; 0x95e <led_config+0x36>
/************************************************************************/
/*				     Конфигурация подсветки                             */
/************************************************************************/
void led_config(void)
{
	switch(LED.speed)   //мс, из расчета 360 вариаций цвета
     940:	84 30       	cpi	r24, 0x04	; 4
     942:	59 f0       	breq	.+22     	; 0x95a <led_config+0x32>
     944:	85 30       	cpi	r24, 0x05	; 5
     946:	79 f4       	brne	.+30     	; 0x966 <led_config+0x3e>
	{
		case 1:{delay_for_leds = 28;};break;// 10 секунд   
		case 2:{delay_for_leds = 83;};break;// 30 секунд	
		case 3:{delay_for_leds = 167;};break;// 1 минута	
		case 4:{delay_for_leds = 1667;};break;// 10 минут	
		case 5:{delay_for_leds = 5;};break;// 1,8 секунды (только при старте часов)
     948:	85 e0       	ldi	r24, 0x05	; 5
     94a:	90 e0       	ldi	r25, 0x00	; 0
     94c:	08 c0       	rjmp	.+16     	; 0x95e <led_config+0x36>
/************************************************************************/
void led_config(void)
{
	switch(LED.speed)   //мс, из расчета 360 вариаций цвета
	{
		case 1:{delay_for_leds = 28;};break;// 10 секунд   
     94e:	8c e1       	ldi	r24, 0x1C	; 28
     950:	90 e0       	ldi	r25, 0x00	; 0
     952:	05 c0       	rjmp	.+10     	; 0x95e <led_config+0x36>
		case 2:{delay_for_leds = 83;};break;// 30 секунд	
		case 3:{delay_for_leds = 167;};break;// 1 минута	
     954:	87 ea       	ldi	r24, 0xA7	; 167
     956:	90 e0       	ldi	r25, 0x00	; 0
     958:	02 c0       	rjmp	.+4      	; 0x95e <led_config+0x36>
		case 4:{delay_for_leds = 1667;};break;// 10 минут	
     95a:	83 e8       	ldi	r24, 0x83	; 131
     95c:	96 e0       	ldi	r25, 0x06	; 6
		case 5:{delay_for_leds = 5;};break;// 1,8 секунды (только при старте часов)
     95e:	90 93 7d 00 	sts	0x007D, r25	; 0x80007d <delay_for_leds+0x1>
     962:	80 93 7c 00 	sts	0x007C, r24	; 0x80007c <delay_for_leds>
	}
	switch(LED.bright)  //уровни яркости от 0 до 255
     966:	80 91 b5 00 	lds	r24, 0x00B5	; 0x8000b5 <LED+0x2>
     96a:	82 30       	cpi	r24, 0x02	; 2
     96c:	59 f0       	breq	.+22     	; 0x984 <led_config+0x5c>
     96e:	20 f4       	brcc	.+8      	; 0x978 <led_config+0x50>
     970:	81 30       	cpi	r24, 0x01	; 1
     972:	69 f4       	brne	.+26     	; 0x98e <led_config+0x66>
	{
		case 1:{value=255;};break;  //100% яркость
     974:	8f ef       	ldi	r24, 0xFF	; 255
     976:	09 c0       	rjmp	.+18     	; 0x98a <led_config+0x62>
		case 2:{delay_for_leds = 83;};break;// 30 секунд	
		case 3:{delay_for_leds = 167;};break;// 1 минута	
		case 4:{delay_for_leds = 1667;};break;// 10 минут	
		case 5:{delay_for_leds = 5;};break;// 1,8 секунды (только при старте часов)
	}
	switch(LED.bright)  //уровни яркости от 0 до 255
     978:	83 30       	cpi	r24, 0x03	; 3
     97a:	31 f0       	breq	.+12     	; 0x988 <led_config+0x60>
     97c:	84 30       	cpi	r24, 0x04	; 4
     97e:	39 f4       	brne	.+14     	; 0x98e <led_config+0x66>
	{
		case 1:{value=255;};break;  //100% яркость
		case 2:{value=128;};break;	//75% яркость
		case 3:{value=51;};break;	//50% яркость
		case 4:{value=24;};break;	//25% яркость
     980:	88 e1       	ldi	r24, 0x18	; 24
     982:	03 c0       	rjmp	.+6      	; 0x98a <led_config+0x62>
		case 5:{delay_for_leds = 5;};break;// 1,8 секунды (только при старте часов)
	}
	switch(LED.bright)  //уровни яркости от 0 до 255
	{
		case 1:{value=255;};break;  //100% яркость
		case 2:{value=128;};break;	//75% яркость
     984:	80 e8       	ldi	r24, 0x80	; 128
     986:	01 c0       	rjmp	.+2      	; 0x98a <led_config+0x62>
		case 3:{value=51;};break;	//50% яркость
     988:	83 e3       	ldi	r24, 0x33	; 51
		case 4:{value=24;};break;	//25% яркость
     98a:	80 93 7b 00 	sts	0x007B, r24	; 0x80007b <value>
	}
	if (LED.mode==1)	flag_start_led = 0;  //остановка подсветки
     98e:	80 91 b3 00 	lds	r24, 0x00B3	; 0x8000b3 <LED>
     992:	81 30       	cpi	r24, 0x01	; 1
     994:	19 f4       	brne	.+6      	; 0x99c <led_config+0x74>
     996:	10 92 b2 00 	sts	0x00B2, r1	; 0x8000b2 <flag_start_led>
     99a:	03 c0       	rjmp	.+6      	; 0x9a2 <led_config+0x7a>
	else				flag_start_led = 1;  //установить флаг на запуск подсветки
     99c:	81 e0       	ldi	r24, 0x01	; 1
     99e:	80 93 b2 00 	sts	0x00B2, r24	; 0x8000b2 <flag_start_led>
	led_processing();	//сразу запустить одиночный процесс на светодиоды
     9a2:	19 cf       	rjmp	.-462    	; 0x7d6 <led_processing>

000009a4 <led_color_stop>:
/************************************************************************/
/*         Сохранение выбранного цвета в память и его фиксация          */
/************************************************************************/
void led_color_stop(void)   //  оставливает/запускает анимацию смены цветов
{
	flag_start_led = 0;
     9a4:	10 92 b2 00 	sts	0x00B2, r1	; 0x8000b2 <flag_start_led>
	eeprom_write_word(& color_eeprom, color_angle);
     9a8:	60 91 ac 00 	lds	r22, 0x00AC	; 0x8000ac <color_angle>
     9ac:	70 91 ad 00 	lds	r23, 0x00AD	; 0x8000ad <color_angle+0x1>
     9b0:	85 e1       	ldi	r24, 0x15	; 21
     9b2:	90 e0       	ldi	r25, 0x00	; 0
     9b4:	ab c8       	rjmp	.-3754   	; 0xfffffb0c <__eeprom_end+0xff7efaf5>

000009b6 <led_color_run>:
/************************************************************************/
/*           Запуск смены цвета и удаление из eeprom                    */
/************************************************************************/
void led_color_run(void)
{
	flag_start_led = 1;//запуск анимации и очистка памяти
     9b6:	81 e0       	ldi	r24, 0x01	; 1
     9b8:	80 93 b2 00 	sts	0x00B2, r24	; 0x8000b2 <flag_start_led>
	eeprom_write_word(& color_eeprom, 0);
     9bc:	60 e0       	ldi	r22, 0x00	; 0
     9be:	70 e0       	ldi	r23, 0x00	; 0
     9c0:	85 e1       	ldi	r24, 0x15	; 21
     9c2:	90 e0       	ldi	r25, 0x00	; 0
     9c4:	a3 c8       	rjmp	.-3770   	; 0xfffffb0c <__eeprom_end+0xff7efaf5>

000009c6 <Menu_Navigate>:
}

void Menu_Navigate(Menu_Item_t* const NewMenu)
{
	
	if ((NewMenu == &NULL_MENU) || (NewMenu == NULL))
     9c6:	20 e0       	ldi	r18, 0x00	; 0
     9c8:	8e 3a       	cpi	r24, 0xAE	; 174
     9ca:	92 07       	cpc	r25, r18
     9cc:	71 f0       	breq	.+28     	; 0x9ea <Menu_Navigate+0x24>
     9ce:	00 97       	sbiw	r24, 0x00	; 0
     9d0:	61 f0       	breq	.+24     	; 0x9ea <Menu_Navigate+0x24>
		return;

	CurrentMenuItem = NewMenu;
     9d2:	90 93 61 00 	sts	0x0061, r25	; 0x800061 <__DATA_REGION_ORIGIN__+0x1>
     9d6:	80 93 60 00 	sts	0x0060, r24	; 0x800060 <__DATA_REGION_ORIGIN__>
 
	void (*SelectCallback)(void) = MENU_ITEM_READ_POINTER(&CurrentMenuItem->SelectCallback);
     9da:	06 96       	adiw	r24, 0x06	; 6
     9dc:	fc 01       	movw	r30, r24
     9de:	85 91       	lpm	r24, Z+
     9e0:	94 91       	lpm	r25, Z

	if (SelectCallback)
     9e2:	00 97       	sbiw	r24, 0x00	; 0
     9e4:	11 f0       	breq	.+4      	; 0x9ea <Menu_Navigate+0x24>
		SelectCallback();
     9e6:	fc 01       	movw	r30, r24
     9e8:	09 94       	ijmp
     9ea:	08 95       	ret

000009ec <get_mcucsr>:
/************************************************************************/
/*                                                                      */
/************************************************************************/
void get_mcucsr(void)
{
	mcusr_mirror = MCUCSR;
     9ec:	84 b7       	in	r24, 0x34	; 52
     9ee:	80 93 c9 00 	sts	0x00C9, r24	; 0x8000c9 <__bss_end>
	MCUCSR = 0;
     9f2:	14 be       	out	0x34, r1	; 52
void wdt_disable (void)
{
	if (_SFR_IO_REG_P (_WD_CONTROL_REG))
	{
        uint8_t register temp_reg;
		__asm__ __volatile__ (
     9f4:	0f b6       	in	r0, 0x3f	; 63
     9f6:	f8 94       	cli
     9f8:	a8 95       	wdr
     9fa:	81 b5       	in	r24, 0x21	; 33
     9fc:	88 61       	ori	r24, 0x18	; 24
     9fe:	81 bd       	out	0x21, r24	; 33
     a00:	11 bc       	out	0x21, r1	; 33
     a02:	0f be       	out	0x3f, r0	; 63
     a04:	08 95       	ret

00000a06 <time_manager>:
     Рё РІС‹СЃС‚Р°РІР»СЏРµС‚ С„Р»Р°Рі РЅР° РІРєР»СЋС‡РµРЅРёРµ. Р’РєР»СЋС‡Р°РµС‚ С„Р»Р°РіРё РЅР° Р°РЅРёРјР°С†РёСЋ РїСЂРѕС‚РёРІ
							РѕС‚СЂР°РІР»РµРЅРёСЏ РєР°С‚РѕРґРѕРІ                                                                 
************************************************************************/
void time_manager(void)
{
	Time.Sec=RTC_get(RTC_SEC_ADR);    //РїРѕР»СѓС‡РµРЅРёРµ РґР°РЅРЅС‹С… РѕС‚ РјРёРєСЂРѕСЃС…РµРјС‹ С‡Р°СЃРѕРІ RTC
     a06:	80 e0       	ldi	r24, 0x00	; 0
     a08:	2e d7       	rcall	.+3676   	; 0x1866 <RTC_get>
     a0a:	80 93 b6 00 	sts	0x00B6, r24	; 0x8000b6 <Time>
    Time.Min=RTC_get(RTC_MIN_ADR);
     a0e:	81 e0       	ldi	r24, 0x01	; 1
     a10:	2a d7       	rcall	.+3668   	; 0x1866 <RTC_get>
     a12:	80 93 b8 00 	sts	0x00B8, r24	; 0x8000b8 <Time+0x2>
    Time.Hour=RTC_get(RTC_HOUR_ADR);
     a16:	82 e0       	ldi	r24, 0x02	; 2
     a18:	26 d7       	rcall	.+3660   	; 0x1866 <RTC_get>
		
	Time.Hour=((Time.Hour>>4)*10)+(Time.Hour&0x0f); //РїРµСЂРµРІРѕРґ РІ РґРµСЃСЏС‚РёС‡РЅС‹Рµ
     a1a:	98 2f       	mov	r25, r24
     a1c:	92 95       	swap	r25
     a1e:	9f 70       	andi	r25, 0x0F	; 15
     a20:	8f 70       	andi	r24, 0x0F	; 15
     a22:	2a e0       	ldi	r18, 0x0A	; 10
     a24:	92 9f       	mul	r25, r18
     a26:	80 0d       	add	r24, r0
     a28:	11 24       	eor	r1, r1
     a2a:	80 93 b7 00 	sts	0x00B7, r24	; 0x8000b7 <Time+0x1>
	Time.Min=(((Time.Min>>4)*10)+(Time.Min&0x0f));  //РїРµСЂРµРІРѕРґ РІ РґРµСЃСЏС‚РёС‡РЅС‹Рµ
     a2e:	80 91 b8 00 	lds	r24, 0x00B8	; 0x8000b8 <Time+0x2>
     a32:	98 2f       	mov	r25, r24
     a34:	92 95       	swap	r25
     a36:	9f 70       	andi	r25, 0x0F	; 15
     a38:	8f 70       	andi	r24, 0x0F	; 15
     a3a:	4a e0       	ldi	r20, 0x0A	; 10
     a3c:	94 9f       	mul	r25, r20
     a3e:	80 0d       	add	r24, r0
     a40:	11 24       	eor	r1, r1
     a42:	80 93 b8 00 	sts	0x00B8, r24	; 0x8000b8 <Time+0x2>
		
/************************************************************************/
/*			   РћС‚РєР»СЋС‡РёС‚СЊ Р±СѓРґРёР»СЊРЅРёРє СЃРїСѓСЃС‚СЏ РјРёРЅСѓС‚Сѓ СЂР°Р±РѕС‚С‹                 */
/************************************************************************/
	if (buzzer_flag&&Time.Sec==0x59)	buzzer_flag = stop_buzzer();
     a46:	80 91 83 00 	lds	r24, 0x0083	; 0x800083 <buzzer_flag>
     a4a:	88 23       	and	r24, r24
     a4c:	39 f0       	breq	.+14     	; 0xa5c <time_manager+0x56>
     a4e:	80 91 b6 00 	lds	r24, 0x00B6	; 0x8000b6 <Time>
     a52:	89 35       	cpi	r24, 0x59	; 89
     a54:	19 f4       	brne	.+6      	; 0xa5c <time_manager+0x56>
     a56:	89 db       	rcall	.-2286   	; 0x16a <stop_buzzer>
     a58:	80 93 83 00 	sts	0x0083, r24	; 0x800083 <buzzer_flag>
	
/************************************************************************/
/*					РџСЂРѕРІРµСЂРєР° Р±СѓРґРёР»СЊРЅРёРєРѕРІ Рё РёС… РІРєР»СЋС‡РµРЅРёРµ				    */
/************************************************************************/
	if (Time.Sec==0)
     a5c:	80 91 b6 00 	lds	r24, 0x00B6	; 0x8000b6 <Time>
     a60:	88 23       	and	r24, r24
     a62:	29 f0       	breq	.+10     	; 0xa6e <time_manager+0x68>
		}
	}
/************************************************************************/
/*						РљРѕСЂСЂРµРєС‚РёСЂРѕРІРєР° РІСЂРµРјРµРЅРё                           */
/************************************************************************/
	if ((start_correct_flag)&&(Time.Sec==0x25)) //РґРµР»Р°С‚СЊ РїРµСЂРµРІРѕРґ РЅР° 25-Р№ СЃРµРєСѓРЅРґРµ (25 РїСЂРµРґСЃС‚Р°РІР»РµРЅР° РІ 16-С‚РёСЂРёС‡РЅРѕР№ СЃРёСЃС‚РµРјРµ)
     a64:	90 91 c1 00 	lds	r25, 0x00C1	; 0x8000c1 <start_correct_flag>
     a68:	91 11       	cpse	r25, r1
     a6a:	1b c0       	rjmp	.+54     	; 0xaa2 <time_manager+0x9c>
     a6c:	49 c0       	rjmp	.+146    	; 0xb00 <time_manager+0xfa>
/************************************************************************/
	if (Time.Sec==0)
	{
		for (uint8_t j=0;j<4;j++)
		{
			if ((Alarm[j].Al_status==1) && (Alarm[j].Al_hour==Time.Hour) && (Alarm[j].Al_min==Time.Min))
     a6e:	20 91 b7 00 	lds	r18, 0x00B7	; 0x8000b7 <Time+0x1>
     a72:	30 91 b8 00 	lds	r19, 0x00B8	; 0x8000b8 <Time+0x2>
     a76:	90 91 83 00 	lds	r25, 0x0083	; 0x800083 <buzzer_flag>
     a7a:	e3 e9       	ldi	r30, 0x93	; 147
     a7c:	f0 e0       	ldi	r31, 0x00	; 0
     a7e:	42 81       	ldd	r20, Z+2	; 0x02
     a80:	41 30       	cpi	r20, 0x01	; 1
     a82:	39 f4       	brne	.+14     	; 0xa92 <time_manager+0x8c>
     a84:	40 81       	ld	r20, Z
     a86:	42 13       	cpse	r20, r18
     a88:	04 c0       	rjmp	.+8      	; 0xa92 <time_manager+0x8c>
     a8a:	41 81       	ldd	r20, Z+1	; 0x01
     a8c:	43 13       	cpse	r20, r19
     a8e:	01 c0       	rjmp	.+2      	; 0xa92 <time_manager+0x8c>
			{
				buzzer_flag = 1;			// С„СѓРЅРєС†РёСЏ РІРєР»СЋС‡РµРЅРёСЏ Р·РІСѓРєР°			
     a90:	91 e0       	ldi	r25, 0x01	; 1
     a92:	33 96       	adiw	r30, 0x03	; 3
/************************************************************************/
/*					РџСЂРѕРІРµСЂРєР° Р±СѓРґРёР»СЊРЅРёРєРѕРІ Рё РёС… РІРєР»СЋС‡РµРЅРёРµ				    */
/************************************************************************/
	if (Time.Sec==0)
	{
		for (uint8_t j=0;j<4;j++)
     a94:	40 e0       	ldi	r20, 0x00	; 0
     a96:	ef 39       	cpi	r30, 0x9F	; 159
     a98:	f4 07       	cpc	r31, r20
     a9a:	89 f7       	brne	.-30     	; 0xa7e <time_manager+0x78>
     a9c:	90 93 83 00 	sts	0x0083, r25	; 0x800083 <buzzer_flag>
     aa0:	e1 cf       	rjmp	.-62     	; 0xa64 <time_manager+0x5e>
		}
	}
/************************************************************************/
/*						РљРѕСЂСЂРµРєС‚РёСЂРѕРІРєР° РІСЂРµРјРµРЅРё                           */
/************************************************************************/
	if ((start_correct_flag)&&(Time.Sec==0x25)) //РґРµР»Р°С‚СЊ РїРµСЂРµРІРѕРґ РЅР° 25-Р№ СЃРµРєСѓРЅРґРµ (25 РїСЂРµРґСЃС‚Р°РІР»РµРЅР° РІ 16-С‚РёСЂРёС‡РЅРѕР№ СЃРёСЃС‚РµРјРµ)
     aa2:	85 32       	cpi	r24, 0x25	; 37
     aa4:	69 f5       	brne	.+90     	; 0xb00 <time_manager+0xfa>
	{											//РІС‹С‡РёС‚Р°РЅРёРµ Рё СЃР»РѕР¶РµРЅРёРµ РІ 10-С‚РёС‡РЅРѕР№ РµРґРёРЅРёС†С‹ РґР°СЃС‚ РІРµСЂРЅСѓСЋ Р·Р°РїРёСЃСЊ РІ 16-С‚Рё
		start_correct_flag = 0;
     aa6:	10 92 c1 00 	sts	0x00C1, r1	; 0x8000c1 <start_correct_flag>
		total_us -= 10000000;	//РѕР±РЅСѓР»РёС‚СЊ СЃС‡РµС‚С‡РёРє РєРѕСЂСЂРµРєС‚РёСЂРѕРІРѕС‡РЅС‹С… РјРёРєСЂРѕСЃРµРєСѓРЅРґ
     aaa:	80 91 c5 00 	lds	r24, 0x00C5	; 0x8000c5 <total_us>
     aae:	90 91 c6 00 	lds	r25, 0x00C6	; 0x8000c6 <total_us+0x1>
     ab2:	a0 91 c7 00 	lds	r26, 0x00C7	; 0x8000c7 <total_us+0x2>
     ab6:	b0 91 c8 00 	lds	r27, 0x00C8	; 0x8000c8 <total_us+0x3>
     aba:	80 58       	subi	r24, 0x80	; 128
     abc:	96 49       	sbci	r25, 0x96	; 150
     abe:	a8 49       	sbci	r26, 0x98	; 152
     ac0:	b1 09       	sbc	r27, r1
     ac2:	80 93 c5 00 	sts	0x00C5, r24	; 0x8000c5 <total_us>
     ac6:	90 93 c6 00 	sts	0x00C6, r25	; 0x8000c6 <total_us+0x1>
     aca:	a0 93 c7 00 	sts	0x00C7, r26	; 0x8000c7 <total_us+0x2>
     ace:	b0 93 c8 00 	sts	0x00C8, r27	; 0x8000c8 <total_us+0x3>
		if (Time.Correct_sec > 0)Time.Sec += 1;
     ad2:	80 91 bf 00 	lds	r24, 0x00BF	; 0x8000bf <Time+0x9>
     ad6:	18 16       	cp	r1, r24
     ad8:	14 f4       	brge	.+4      	; 0xade <time_manager+0xd8>
     ada:	86 e2       	ldi	r24, 0x26	; 38
     adc:	03 c0       	rjmp	.+6      	; 0xae4 <time_manager+0xde>
		if (Time.Correct_sec < 0)Time.Sec -= 1;
     ade:	88 23       	and	r24, r24
     ae0:	19 f0       	breq	.+6      	; 0xae8 <time_manager+0xe2>
     ae2:	84 e2       	ldi	r24, 0x24	; 36
     ae4:	80 93 b6 00 	sts	0x00B6, r24	; 0x8000b6 <Time>
		RTC_SetValue(RTC_SEC_ADR, ((Time.Sec>>4)*10) + (Time.Sec&0x0F));	//РїСЂРµРѕР±СЂР°Р·РѕРІР°С‚СЊ СЃРµРєСѓРЅРґС‹ РІ РґРµСЃСЏС‚РёС‡РЅС‹Р№ С„РѕСЂРјР°С‚ Рё Р·Р°РїРёСЃР°С‚СЊ
     ae8:	60 91 b6 00 	lds	r22, 0x00B6	; 0x8000b6 <Time>
     aec:	86 2f       	mov	r24, r22
     aee:	82 95       	swap	r24
     af0:	8f 70       	andi	r24, 0x0F	; 15
     af2:	6f 70       	andi	r22, 0x0F	; 15
     af4:	9a e0       	ldi	r25, 0x0A	; 10
     af6:	89 9f       	mul	r24, r25
     af8:	60 0d       	add	r22, r0
     afa:	11 24       	eor	r1, r1
     afc:	80 e0       	ldi	r24, 0x00	; 0
     afe:	9a d6       	rcall	.+3380   	; 0x1834 <RTC_SetValue>
	}
/************************************************************************/
/*						РЈСЃР»РѕРІРёРµ РЅР° РїРѕРєР°Р· РґР°С‚С‹			                */
/************************************************************************/
	if ((Time.data_on) && (((Time.Sec>=0x05)&&(Time.Sec<0x10))||((Time.Sec>=0x35)&&(Time.Sec<0x40))))
     b00:	90 91 bc 00 	lds	r25, 0x00BC	; 0x8000bc <Time+0x6>
     b04:	80 91 b6 00 	lds	r24, 0x00B6	; 0x8000b6 <Time>
     b08:	99 23       	and	r25, r25
     b0a:	29 f1       	breq	.+74     	; 0xb56 <time_manager+0x150>
     b0c:	9b ef       	ldi	r25, 0xFB	; 251
     b0e:	98 0f       	add	r25, r24
     b10:	9b 30       	cpi	r25, 0x0B	; 11
     b12:	20 f0       	brcs	.+8      	; 0xb1c <time_manager+0x116>
     b14:	9b ec       	ldi	r25, 0xCB	; 203
     b16:	98 0f       	add	r25, r24
     b18:	9b 30       	cpi	r25, 0x0B	; 11
     b1a:	e8 f4       	brcc	.+58     	; 0xb56 <time_manager+0x150>
	{
		no_points_global = 1;  //СѓР±СЂР°С‚СЊ С‚РѕС‡РєРё СЃ Р±СѓРґРёР»СЊРЅРёРєРѕРІ
     b1c:	81 e0       	ldi	r24, 0x01	; 1
     b1e:	80 93 c0 00 	sts	0x00C0, r24	; 0x8000c0 <no_points_global>
		Time.Day=RTC_get(RTC_DAY_ADR);
     b22:	84 e0       	ldi	r24, 0x04	; 4
     b24:	a0 d6       	rcall	.+3392   	; 0x1866 <RTC_get>
     b26:	80 93 ba 00 	sts	0x00BA, r24	; 0x8000ba <Time+0x4>
		Time.Month=RTC_get(RTC_MONTH_ADR);
     b2a:	85 e0       	ldi	r24, 0x05	; 5
     b2c:	9c d6       	rcall	.+3384   	; 0x1866 <RTC_get>
     b2e:	80 93 b9 00 	sts	0x00B9, r24	; 0x8000b9 <Time+0x3>
		DIVIDING_POINT_ON;
     b32:	a8 9a       	sbi	0x15, 0	; 21
		Ind[0].lamp=Time.Day>>4;
     b34:	90 91 ba 00 	lds	r25, 0x00BA	; 0x8000ba <Time+0x4>
     b38:	29 2f       	mov	r18, r25
     b3a:	22 95       	swap	r18
     b3c:	2f 70       	andi	r18, 0x0F	; 15
     b3e:	20 93 9f 00 	sts	0x009F, r18	; 0x80009f <Ind>
		Ind[1].lamp=Time.Day&0x0f;
     b42:	9f 70       	andi	r25, 0x0F	; 15
     b44:	90 93 a2 00 	sts	0x00A2, r25	; 0x8000a2 <Ind+0x3>
		Ind[2].lamp=Time.Month>>4;
     b48:	98 2f       	mov	r25, r24
     b4a:	92 95       	swap	r25
     b4c:	9f 70       	andi	r25, 0x0F	; 15
     b4e:	90 93 a5 00 	sts	0x00A5, r25	; 0x8000a5 <Ind+0x6>
		Ind[3].lamp=Time.Month&0x0f;
     b52:	8f 70       	andi	r24, 0x0F	; 15
     b54:	7e c0       	rjmp	.+252    	; 0xc52 <time_manager+0x24c>
		return;
	}	
/************************************************************************/
/*					РЈСЃР»РѕРІРёРµ РЅР° РїРѕРєР°Р· С‚РµРјРїРµСЂР°С‚СѓСЂС‹                        */
/************************************************************************/	
    if((Time.temp_on)&&(((Time.Sec>=0x19)&&(Time.Sec<0x24))||((Time.Sec>=0x49)&&(Time.Sec<0x54))))  //Р—Р°РїСѓСЃРє РїСЂРµРѕР±СЂР°Р·РѕРІР°РЅРёСЏ Р·Р° СЃРµРєСѓРЅРґСѓ РґРѕ РїРѕРєР°Р·Р°
     b56:	90 91 bd 00 	lds	r25, 0x00BD	; 0x8000bd <Time+0x7>
     b5a:	99 23       	and	r25, r25
     b5c:	09 f4       	brne	.+2      	; 0xb60 <time_manager+0x15a>
     b5e:	7c c0       	rjmp	.+248    	; 0xc58 <time_manager+0x252>
     b60:	97 ee       	ldi	r25, 0xE7	; 231
     b62:	98 0f       	add	r25, r24
     b64:	9b 30       	cpi	r25, 0x0B	; 11
     b66:	18 f0       	brcs	.+6      	; 0xb6e <time_manager+0x168>
     b68:	89 54       	subi	r24, 0x49	; 73
     b6a:	8b 30       	cpi	r24, 0x0B	; 11
     b6c:	b8 f4       	brcc	.+46     	; 0xb9c <time_manager+0x196>
    {
	  	therm_ready_flag = therm_start_convert();
     b6e:	c5 db       	rcall	.-2166   	; 0x2fa <therm_start_convert>
     b70:	80 93 84 00 	sts	0x0084, r24	; 0x800084 <therm_ready_flag>
		therm_ready_delay = GetTick();
     b74:	9e d6       	rcall	.+3388   	; 0x18b2 <GetTick>
     b76:	90 93 8a 00 	sts	0x008A, r25	; 0x80008a <therm_ready_delay+0x1>
     b7a:	80 93 89 00 	sts	0x0089, r24	; 0x800089 <therm_ready_delay>
		if (!therm_ready_flag)	temp_data = 999; //РµСЃР»Рё РґР°С‚С‡РёРє РЅРµ РЅР°Р№РґРµРЅ, С‚Рѕ РІС‹РґР°С‚СЊ РѕС€РёР±РєСѓ 99,9
     b7e:	80 91 84 00 	lds	r24, 0x0084	; 0x800084 <therm_ready_flag>
     b82:	81 11       	cpse	r24, r1
     b84:	06 c0       	rjmp	.+12     	; 0xb92 <time_manager+0x18c>
     b86:	87 ee       	ldi	r24, 0xE7	; 231
     b88:	93 e0       	ldi	r25, 0x03	; 3
     b8a:	90 93 88 00 	sts	0x0088, r25	; 0x800088 <temp_data+0x1>
     b8e:	80 93 87 00 	sts	0x0087, r24	; 0x800087 <temp_data>
    }
 	if ((Time.temp_on) && (((Time.Sec>=0x20)&&(Time.Sec<0x25))||((Time.Sec>=0x50)&&(Time.Sec<0x55))))  //РџРѕРєР°Р· С‚РµРјРїРµСЂР°С‚СѓСЂС‹
     b92:	80 91 bd 00 	lds	r24, 0x00BD	; 0x8000bd <Time+0x7>
     b96:	88 23       	and	r24, r24
     b98:	09 f4       	brne	.+2      	; 0xb9c <time_manager+0x196>
     b9a:	5e c0       	rjmp	.+188    	; 0xc58 <time_manager+0x252>
     b9c:	80 91 b6 00 	lds	r24, 0x00B6	; 0x8000b6 <Time>
     ba0:	90 ee       	ldi	r25, 0xE0	; 224
     ba2:	98 0f       	add	r25, r24
     ba4:	95 30       	cpi	r25, 0x05	; 5
     ba6:	20 f0       	brcs	.+8      	; 0xbb0 <time_manager+0x1aa>
     ba8:	80 55       	subi	r24, 0x50	; 80
     baa:	85 30       	cpi	r24, 0x05	; 5
     bac:	08 f0       	brcs	.+2      	; 0xbb0 <time_manager+0x1aa>
     bae:	54 c0       	rjmp	.+168    	; 0xc58 <time_manager+0x252>
 	{	
		static uint16_t filt_temp_data;
		const uint8_t k = 3, A = 7;  //[k=2 A=3], [k=3 A=7], [k=4 A=15], [k=5 A=31], С‡РµРј Р±РѕР»СЊС€Рµ k С‚РµРј РїР»Р°РІРЅРµРµ С„РёР»СЊС‚СЂ
		
		if (abs(temp_data - filt_temp_data) > 20) filt_temp_data = temp_data; //РµСЃР»Рё РѕС‚Р»РёС‡Р°СЋС‚СЃСЏ РЅР° 2 РіСЂР°РґСѓСЃР°, С‚Рѕ С„РёР»СЊС‚СЂСѓ РїСЂРёСЃРІРѕРёС‚СЊ РЅРѕРІРѕРµ Р·РЅР°С‡РµРЅРёРµ
     bb0:	40 91 87 00 	lds	r20, 0x0087	; 0x800087 <temp_data>
     bb4:	50 91 88 00 	lds	r21, 0x0088	; 0x800088 <temp_data+0x1>
     bb8:	20 91 7e 00 	lds	r18, 0x007E	; 0x80007e <filt_temp_data.2433>
     bbc:	30 91 7f 00 	lds	r19, 0x007F	; 0x80007f <filt_temp_data.2433+0x1>
     bc0:	ca 01       	movw	r24, r20
     bc2:	82 1b       	sub	r24, r18
     bc4:	93 0b       	sbc	r25, r19
     bc6:	bc 01       	movw	r22, r24
     bc8:	97 ff       	sbrs	r25, 7
     bca:	04 c0       	rjmp	.+8      	; 0xbd4 <time_manager+0x1ce>
     bcc:	66 27       	eor	r22, r22
     bce:	77 27       	eor	r23, r23
     bd0:	68 1b       	sub	r22, r24
     bd2:	79 0b       	sbc	r23, r25
     bd4:	65 31       	cpi	r22, 0x15	; 21
     bd6:	71 05       	cpc	r23, r1
     bd8:	2c f0       	brlt	.+10     	; 0xbe4 <time_manager+0x1de>
     bda:	50 93 7f 00 	sts	0x007F, r21	; 0x80007f <filt_temp_data.2433+0x1>
     bde:	40 93 7e 00 	sts	0x007E, r20	; 0x80007e <filt_temp_data.2433>
     be2:	10 c0       	rjmp	.+32     	; 0xc04 <time_manager+0x1fe>
		else	filt_temp_data = (A*filt_temp_data + temp_data) >> k;  //С„РёР»СЊС‚СЂ
     be4:	43 e0       	ldi	r20, 0x03	; 3
     be6:	22 0f       	add	r18, r18
     be8:	33 1f       	adc	r19, r19
     bea:	4a 95       	dec	r20
     bec:	e1 f7       	brne	.-8      	; 0xbe6 <time_manager+0x1e0>
     bee:	82 0f       	add	r24, r18
     bf0:	93 1f       	adc	r25, r19
     bf2:	53 e0       	ldi	r21, 0x03	; 3
     bf4:	96 95       	lsr	r25
     bf6:	87 95       	ror	r24
     bf8:	5a 95       	dec	r21
     bfa:	e1 f7       	brne	.-8      	; 0xbf4 <time_manager+0x1ee>
     bfc:	90 93 7f 00 	sts	0x007F, r25	; 0x80007f <filt_temp_data.2433+0x1>
     c00:	80 93 7e 00 	sts	0x007E, r24	; 0x80007e <filt_temp_data.2433>
		
		if (filt_temp_data > 999) filt_temp_data = 999;  //РјР°РєСЃРёРјСѓРјР°Р»СЊРЅР°СЏ РѕС‚РѕР±СЂРѕР¶Р°РµРјР°СЏ С‚РµРјРїРµСЂР°С‚СѓСЂР°
     c04:	80 91 7e 00 	lds	r24, 0x007E	; 0x80007e <filt_temp_data.2433>
     c08:	90 91 7f 00 	lds	r25, 0x007F	; 0x80007f <filt_temp_data.2433+0x1>
     c0c:	88 3e       	cpi	r24, 0xE8	; 232
     c0e:	93 40       	sbci	r25, 0x03	; 3
     c10:	30 f0       	brcs	.+12     	; 0xc1e <time_manager+0x218>
     c12:	87 ee       	ldi	r24, 0xE7	; 231
     c14:	93 e0       	ldi	r25, 0x03	; 3
     c16:	90 93 7f 00 	sts	0x007F, r25	; 0x80007f <filt_temp_data.2433+0x1>
     c1a:	80 93 7e 00 	sts	0x007E, r24	; 0x80007e <filt_temp_data.2433>
	
		no_points_global = 1;  //СѓР±СЂР°С‚СЊ С‚РѕС‡РєРё СЃ Р±СѓРґРёР»СЊРЅРёРєРѕРІ
     c1e:	81 e0       	ldi	r24, 0x01	; 1
     c20:	80 93 c0 00 	sts	0x00C0, r24	; 0x8000c0 <no_points_global>
		DIVIDING_POINT_ON;
     c24:	a8 9a       	sbi	0x15, 0	; 21
				
 		Ind[0].lamp = filt_temp_data/100;
     c26:	e0 91 7e 00 	lds	r30, 0x007E	; 0x80007e <filt_temp_data.2433>
     c2a:	f0 91 7f 00 	lds	r31, 0x007F	; 0x80007f <filt_temp_data.2433+0x1>
     c2e:	cf 01       	movw	r24, r30
     c30:	64 e6       	ldi	r22, 0x64	; 100
     c32:	70 e0       	ldi	r23, 0x00	; 0
     c34:	d0 d6       	rcall	.+3488   	; 0x19d6 <__udivmodhi4>
     c36:	60 93 9f 00 	sts	0x009F, r22	; 0x80009f <Ind>
 		Ind[1].lamp = (filt_temp_data%100)/10;
     c3a:	2a e0       	ldi	r18, 0x0A	; 10
     c3c:	30 e0       	ldi	r19, 0x00	; 0
     c3e:	b9 01       	movw	r22, r18
     c40:	ca d6       	rcall	.+3476   	; 0x19d6 <__udivmodhi4>
     c42:	60 93 a2 00 	sts	0x00A2, r22	; 0x8000a2 <Ind+0x3>
 		Ind[2].lamp = filt_temp_data%10;
     c46:	cf 01       	movw	r24, r30
     c48:	b9 01       	movw	r22, r18
     c4a:	c5 d6       	rcall	.+3466   	; 0x19d6 <__udivmodhi4>
     c4c:	80 93 a5 00 	sts	0x00A5, r24	; 0x8000a5 <Ind+0x6>
		Ind[3].lamp = 10;	
     c50:	8a e0       	ldi	r24, 0x0A	; 10
     c52:	80 93 a8 00 	sts	0x00A8, r24	; 0x8000a8 <Ind+0x9>
		return;
     c56:	08 95       	ret
	}	
/************************************************************************/
/*			     РЈСЃР»РѕРІРёРµ РЅР° РїСЂРѕР±РµРі С†РёС„СЂ РєР°Р¶РґС‹Рµ 5 РјРёРЅСѓС‚					*/
/************************************************************************/
  		no_points_global = 0;  //РїРѕРєР°Р·Р°С‚СЊ С‚РѕС‡РєРё Р±СѓРґРёР»СЊРЅРёРєРѕРІ
     c58:	10 92 c0 00 	sts	0x00C0, r1	; 0x8000c0 <no_points_global>
  		if ((Time.am_pm)&&(Time.Hour>11))  Time.Hour-=12;				
     c5c:	80 91 be 00 	lds	r24, 0x00BE	; 0x8000be <Time+0x8>
     c60:	88 23       	and	r24, r24
     c62:	39 f0       	breq	.+14     	; 0xc72 <time_manager+0x26c>
     c64:	80 91 b7 00 	lds	r24, 0x00B7	; 0x8000b7 <Time+0x1>
     c68:	8c 30       	cpi	r24, 0x0C	; 12
     c6a:	18 f0       	brcs	.+6      	; 0xc72 <time_manager+0x26c>
     c6c:	8c 50       	subi	r24, 0x0C	; 12
     c6e:	80 93 b7 00 	sts	0x00B7, r24	; 0x8000b7 <Time+0x1>
  		
  		if ( ((Time.Sec==0x00)&&((Time.Min%5)==0)) || start_program_flag )   //РђРЅРёРјР°С†РёСЏ РїРµСЂРµРєР»СЋС‡РµРЅРёСЏ РїСЂРѕС‚РёРІ РѕС‚СЂР°РІР»РµРЅРёСЏ РєР°С‚РѕРґРѕРІ РєР°Р¶РґС‹Рµ 5 РјРёРЅСѓС‚
     c72:	80 91 b6 00 	lds	r24, 0x00B6	; 0x8000b6 <Time>
     c76:	81 11       	cpse	r24, r1
     c78:	06 c0       	rjmp	.+12     	; 0xc86 <time_manager+0x280>
     c7a:	80 91 b8 00 	lds	r24, 0x00B8	; 0x8000b8 <Time+0x2>
     c7e:	65 e0       	ldi	r22, 0x05	; 5
     c80:	91 d6       	rcall	.+3362   	; 0x19a4 <__udivmodqi4>
     c82:	99 23       	and	r25, r25
     c84:	21 f0       	breq	.+8      	; 0xc8e <time_manager+0x288>
     c86:	80 91 86 00 	lds	r24, 0x0086	; 0x800086 <start_program_flag>
     c8a:	88 23       	and	r24, r24
     c8c:	d9 f0       	breq	.+54     	; 0xcc4 <time_manager+0x2be>
  		{
  			start_program_flag = 0;
     c8e:	10 92 86 00 	sts	0x0086, r1	; 0x800086 <start_program_flag>
/************************************************************************/
/*                РЈСЃС‚Р°РЅРѕРІРєР° С„Р»Р°РіР° РЅР° Р·Р°РїСѓСЃРє Р°РЅРёРјР°С†РёРё                    */
/************************************************************************/
static void single_animation_start(void)
{
	delay_animation = GetTick();
     c92:	0f d6       	rcall	.+3102   	; 0x18b2 <GetTick>
     c94:	90 93 8c 00 	sts	0x008C, r25	; 0x80008c <delay_animation+0x1>
     c98:	80 93 8b 00 	sts	0x008B, r24	; 0x80008b <delay_animation>
	single_animation_flag = 1;
     c9c:	81 e0       	ldi	r24, 0x01	; 1
     c9e:	80 93 85 00 	sts	0x0085, r24	; 0x800085 <single_animation_flag>
  		
  		if ( ((Time.Sec==0x00)&&((Time.Min%5)==0)) || start_program_flag )   //РђРЅРёРјР°С†РёСЏ РїРµСЂРµРєР»СЋС‡РµРЅРёСЏ РїСЂРѕС‚РёРІ РѕС‚СЂР°РІР»РµРЅРёСЏ РєР°С‚РѕРґРѕРІ РєР°Р¶РґС‹Рµ 5 РјРёРЅСѓС‚
  		{
  			start_program_flag = 0;
  			single_animation_start();
  			Ind[0].clone = Time.Hour/10;
     ca2:	80 91 b7 00 	lds	r24, 0x00B7	; 0x8000b7 <Time+0x1>
     ca6:	2a e0       	ldi	r18, 0x0A	; 10
     ca8:	62 2f       	mov	r22, r18
     caa:	7c d6       	rcall	.+3320   	; 0x19a4 <__udivmodqi4>
     cac:	80 93 a1 00 	sts	0x00A1, r24	; 0x8000a1 <Ind+0x2>
  			Ind[1].clone = Time.Hour%10;
     cb0:	90 93 a4 00 	sts	0x00A4, r25	; 0x8000a4 <Ind+0x5>
  			Ind[2].clone = Time.Min/10;
     cb4:	80 91 b8 00 	lds	r24, 0x00B8	; 0x8000b8 <Time+0x2>
     cb8:	75 d6       	rcall	.+3306   	; 0x19a4 <__udivmodqi4>
     cba:	80 93 a7 00 	sts	0x00A7, r24	; 0x8000a7 <Ind+0x8>
  			Ind[3].clone = Time.Min%10;
     cbe:	90 93 aa 00 	sts	0x00AA, r25	; 0x8000aa <Ind+0xb>
     cc2:	10 c0       	rjmp	.+32     	; 0xce4 <time_manager+0x2de>
/************************************************************************/
/*			Р•СЃР»Рё РЅРёРєР°РєРёРµ СѓСЃР»РѕРІРёСЏ РЅРµ РїСЂРѕС…РѕРґСЏС‚, С‚Рѕ РїРѕРєР°Р·Р°С‚СЊ РІСЂРµРјСЏ         */
/************************************************************************/
		else
  		{
	  		Ind[0].lamp=Time.Hour/10;
     cc4:	80 91 b7 00 	lds	r24, 0x00B7	; 0x8000b7 <Time+0x1>
     cc8:	2a e0       	ldi	r18, 0x0A	; 10
     cca:	62 2f       	mov	r22, r18
     ccc:	6b d6       	rcall	.+3286   	; 0x19a4 <__udivmodqi4>
     cce:	80 93 9f 00 	sts	0x009F, r24	; 0x80009f <Ind>
	  		Ind[1].lamp=Time.Hour%10;
     cd2:	90 93 a2 00 	sts	0x00A2, r25	; 0x8000a2 <Ind+0x3>
	  		Ind[2].lamp=Time.Min/10;
     cd6:	80 91 b8 00 	lds	r24, 0x00B8	; 0x8000b8 <Time+0x2>
     cda:	64 d6       	rcall	.+3272   	; 0x19a4 <__udivmodqi4>
     cdc:	80 93 a5 00 	sts	0x00A5, r24	; 0x8000a5 <Ind+0x6>
	  		Ind[3].lamp=Time.Min%10;
     ce0:	90 93 a8 00 	sts	0x00A8, r25	; 0x8000a8 <Ind+0x9>
  		}
  		PORTC^=(1<<PC0); //РёРЅРІРµСЂСЃРёСЏ С‚РѕС‡РєРё
     ce4:	95 b3       	in	r25, 0x15	; 21
     ce6:	81 e0       	ldi	r24, 0x01	; 1
     ce8:	89 27       	eor	r24, r25
     cea:	85 bb       	out	0x15, r24	; 21
     cec:	08 95       	ret

00000cee <main>:
						
/************************************************************************/
/*                                                                      */
/************************************************************************/
int main(void)		
{			
     cee:	cf 93       	push	r28
     cf0:	df 93       	push	r29
     cf2:	cd b7       	in	r28, 0x3d	; 61
     cf4:	de b7       	in	r29, 0x3e	; 62
     cf6:	2c 97       	sbiw	r28, 0x0c	; 12
     cf8:	0f b6       	in	r0, 0x3f	; 63
     cfa:	f8 94       	cli
     cfc:	de bf       	out	0x3e, r29	; 62
     cfe:	0f be       	out	0x3f, r0	; 63
     d00:	cd bf       	out	0x3d, r28	; 61
	get_mcucsr();		//РїРѕР»СѓС‡РёС‚СЊ РґР°РЅРЅС‹Рµ Рѕ РёСЃС‚РѕС‡РЅРёРєРµ СЃР±СЂРѕСЃР°
     d02:	74 de       	rcall	.-792    	; 0x9ec <get_mcucsr>
	ws2812_init();
     d04:	46 d6       	rcall	.+3212   	; 0x1992 <ws2812_init>
/*                                                                      */
/************************************************************************/
static void ports_init(void)
{
	//РЅР° РІС‹С…РѕРґ
	DDRB|=(1<<PB0)|(1<<PB1)|(1<<PB2)|(1<<PB3); //Р°РЅРѕРґС‹ Р»Р°РјРї 1-4
     d06:	87 b3       	in	r24, 0x17	; 23
     d08:	8f 60       	ori	r24, 0x0F	; 15
     d0a:	87 bb       	out	0x17, r24	; 23
	DDRC|=(1<<PC0); //Р°РЅРѕРґ РРќРЎ-1
     d0c:	a0 9a       	sbi	0x14, 0	; 20
	DDRD|=(1<<PD0)|(1<<PD1)|(1<<PD2)|(1<<PD3)    |(1<<PD5)   |(1<<PD6); //РІС‹С…РѕРґС‹ РЅР° РєР°С‚РѕРґС‹ С‡РµСЂРµР· РјРёРєСЂРѕСЃС…РµРјСѓ РґРµС€РёС„СЂР°С‚РѕСЂ, Р·СѓРјРµСЂ, С‚РѕС‡РєСѓ Р»Р°РјРї
     d0e:	81 b3       	in	r24, 0x11	; 17
     d10:	8f 66       	ori	r24, 0x6F	; 111
     d12:	81 bb       	out	0x11, r24	; 17
	
	//РЅР° РІС…РѕРґ СЃ РїРѕРґС‚СЏРіРёРІР°РЅРёРµРј Рє +5
	PORTC|=(1<<PC1)|(1<<PC2)|(1<<PC3); //РєРЅРѕРїРєРё
     d14:	85 b3       	in	r24, 0x15	; 21
     d16:	8e 60       	ori	r24, 0x0E	; 14
     d18:	85 bb       	out	0x15, r24	; 21
	PORTB|=(1<<PB5); // РІРЅРµС€РЅРµРµ РїСЂРµСЂС‹РІР°РЅРёРµ РѕС‚ С‡Р°СЃРѕРІ
     d1a:	c5 9a       	sbi	0x18, 5	; 24
int main(void)		
{			
	get_mcucsr();		//РїРѕР»СѓС‡РёС‚СЊ РґР°РЅРЅС‹Рµ Рѕ РёСЃС‚РѕС‡РЅРёРєРµ СЃР±СЂРѕСЃР°
	ws2812_init();
 	ports_init();		
 	SysTick_init();		//РёРЅРёС†РёР°Р»РёР·Р°С†РёСЏ С‚Р°Р№РјРµСЂР°, РѕС‚СЃС‡РёС‚С‹РІР°СЋС‰РµРіРѕ Р·Р°РґРµСЂР¶РєРё
     d1c:	f3 d5       	rcall	.+3046   	; 0x1904 <SysTick_init>
 	indicators_init();	//РёРЅРёС†РёР°Р»РёР·Р°С†РёСЏ С‚Р°Р№РјРµСЂР° РґРёРЅР°РјРёС‡РµСЃРєРѕР№ РёРЅРґРёРєР°С†РёРё
     d1e:	ed dc       	rcall	.-1574   	; 0x6fa <indicators_init>
 	i2c_Init();			
     d20:	fa d5       	rcall	.+3060   	; 0x1916 <i2c_Init>
 	RTC_init();			//РµСЃР»Рё С‡Р°СЃС‹ РЅРµ Р·Р°РїСѓС‰РµРЅС‹, С‚Рѕ Р·Р°РїСѓСЃС‚РёС‚
     d22:	ad d5       	rcall	.+2906   	; 0x187e <RTC_init>
	sei();
     d24:	78 94       	sei
		
 	if (!(mcusr_mirror&(1<<WDRF)))    //РµСЃР»Рё СЃР±СЂРѕСЃ Р±С‹Р» РЅРµ РѕС‚ WDT С‚Рѕ СЃ Р°РЅРёРјР°С†РёРµР№ РІРєР»СЋС‡РµРЅРёСЏ
     d26:	80 91 c9 00 	lds	r24, 0x00C9	; 0x8000c9 <__bss_end>
     d2a:	83 fd       	sbrc	r24, 3
     d2c:	27 c0       	rjmp	.+78     	; 0xd7c <main+0x8e>
 	{
		volatile uint16_t delay_animation = 0;
     d2e:	1c 86       	std	Y+12, r1	; 0x0c
     d30:	1b 86       	std	Y+11, r1	; 0x0b
	 	uint8_t i=0;
		 
		//С‚РµСЃС‚РѕРІС‹Р№ РїСЂРѕРіРѕРЅ РїРѕРґСЃРІРµС‚РєРё
		LED.mode = 2;   //РјРѕРЅРѕС…СЂРѕРј
     d32:	82 e0       	ldi	r24, 0x02	; 2
     d34:	80 93 b3 00 	sts	0x00B3, r24	; 0x8000b3 <LED>
		LED.speed = 5;  //РѕСЃРѕР±Р°СЏ СЃРєРѕСЂРѕСЃС‚СЊ - РїРѕР»РЅС‹Р№ РѕР±РѕСЂРѕС‚ 1,8 СЃРµРєСѓРЅРґС‹
     d38:	85 e0       	ldi	r24, 0x05	; 5
     d3a:	80 93 b4 00 	sts	0x00B4, r24	; 0x8000b4 <LED+0x1>
		LED.bright = 1; //РїРѕР»РЅР°СЏ СЏСЂРєРѕСЃС‚СЊ
     d3e:	81 e0       	ldi	r24, 0x01	; 1
     d40:	80 93 b5 00 	sts	0x00B5, r24	; 0x8000b5 <LED+0x2>
		led_config();   //Р·Р°РїСѓСЃРє РїРѕРґСЃРІРµС‚РєРё
     d44:	f1 dd       	rcall	.-1054   	; 0x928 <led_config>
	sei();
		
 	if (!(mcusr_mirror&(1<<WDRF)))    //РµСЃР»Рё СЃР±СЂРѕСЃ Р±С‹Р» РЅРµ РѕС‚ WDT С‚Рѕ СЃ Р°РЅРёРјР°С†РёРµР№ РІРєР»СЋС‡РµРЅРёСЏ
 	{
		volatile uint16_t delay_animation = 0;
	 	uint8_t i=0;
     d46:	10 e0       	ldi	r17, 0x00	; 0
		LED.speed = 5;  //РѕСЃРѕР±Р°СЏ СЃРєРѕСЂРѕСЃС‚СЊ - РїРѕР»РЅС‹Р№ РѕР±РѕСЂРѕС‚ 1,8 СЃРµРєСѓРЅРґС‹
		LED.bright = 1; //РїРѕР»РЅР°СЏ СЏСЂРєРѕСЃС‚СЊ
		led_config();   //Р·Р°РїСѓСЃРє РїРѕРґСЃРІРµС‚РєРё
		
		//С‚РµСЃС‚РѕРІС‹Р№ РїСЂРѕРіРѕРЅ РёРЅРґРёРєР°С‚РѕСЂРѕРІ
		while(GetTick()<1800)
     d48:	b4 d5       	rcall	.+2920   	; 0x18b2 <GetTick>
     d4a:	88 30       	cpi	r24, 0x08	; 8
     d4c:	97 40       	sbci	r25, 0x07	; 7
     d4e:	f8 f4       	brcc	.+62     	; 0xd8e <main+0xa0>
		{
			Ind[0].lamp=Ind[1].lamp=Ind[2].lamp=Ind[3].lamp=i;
     d50:	10 93 a8 00 	sts	0x00A8, r17	; 0x8000a8 <Ind+0x9>
     d54:	10 93 a5 00 	sts	0x00A5, r17	; 0x8000a5 <Ind+0x6>
     d58:	10 93 a2 00 	sts	0x00A2, r17	; 0x8000a2 <Ind+0x3>
     d5c:	10 93 9f 00 	sts	0x009F, r17	; 0x80009f <Ind>
			led_delay();	//Р·Р°РїСѓСЃРє РїРѕРґСЃРІРµС‚РєРё
     d60:	ce dd       	rcall	.-1124   	; 0x8fe <led_delay>
			if (GetTick() - delay_animation >= 180)
     d62:	a7 d5       	rcall	.+2894   	; 0x18b2 <GetTick>
     d64:	2b 85       	ldd	r18, Y+11	; 0x0b
     d66:	3c 85       	ldd	r19, Y+12	; 0x0c
     d68:	82 1b       	sub	r24, r18
     d6a:	93 0b       	sbc	r25, r19
     d6c:	84 3b       	cpi	r24, 0xB4	; 180
     d6e:	91 05       	cpc	r25, r1
     d70:	58 f3       	brcs	.-42     	; 0xd48 <main+0x5a>
			{
				delay_animation = GetTick();
     d72:	9f d5       	rcall	.+2878   	; 0x18b2 <GetTick>
     d74:	9c 87       	std	Y+12, r25	; 0x0c
     d76:	8b 87       	std	Y+11, r24	; 0x0b
				i++;
     d78:	1f 5f       	subi	r17, 0xFF	; 255
     d7a:	e6 cf       	rjmp	.-52     	; 0xd48 <main+0x5a>
		}
	}
	else  //РµСЃР»Рё РѕС‚ С‚Р°Р№РјРµСЂР°, С‚Рѕ СЃРѕС…СЂР°РЅРёС‚СЊ РєРѕР»РёС‡РµСЃС‚РІРѕ РѕС€РёР±РѕРє
	{
		uint16_t error;
		error = eeprom_read_word((uint16_t *)50);//Р·Р°РїРёСЃР°С‚СЊ РІ Р»РѕРі, РєРѕР»РёС‡РµСЃС‚РІРѕ СЃР±СЂРѕСЃРѕРІ РїРѕ С‚Р°Р№РјРµСЂСѓ watchdog
     d7c:	82 e3       	ldi	r24, 0x32	; 50
     d7e:	90 e0       	ldi	r25, 0x00	; 0
     d80:	b3 d6       	rcall	.+3430   	; 0x1ae8 <eeprom_read_word>
		error++;
		eeprom_write_word((uint16_t *)50, error);
     d82:	bc 01       	movw	r22, r24
     d84:	6f 5f       	subi	r22, 0xFF	; 255
     d86:	7f 4f       	sbci	r23, 0xFF	; 255
     d88:	82 e3       	ldi	r24, 0x32	; 50
     d8a:	90 e0       	ldi	r25, 0x00	; 0
     d8c:	bf d6       	rcall	.+3454   	; 0x1b0c <eeprom_write_word>
	}
	read_eeprom();		//С‡РёС‚Р°РµРј РЅР°СЃС‚СЂРѕР№РєРё РёР· EEPROM, РµСЃР»Рё EEPROM С‡РёСЃС‚Р°СЏ, С‚.Рµ. СЌС‚Рѕ РїРµСЂРІРѕРµ РІРєР»СЋС‡РµРЅРёРµ, С‚Рѕ Р·Р°РїРёС€РµС‚ СЃС‚Р°РЅРґР°СЂС‚РЅС‹Рµ РЅР°СЃС‚СЂРѕР№РєРё РІ EEPROM
     d8e:	fa da       	rcall	.-2572   	; 0x384 <read_eeprom>
	
	while(GetTick()<1801){};	//С‚Р°Р№РјР°СѓС‚ РґР»СЏ СЃР±СЂРѕСЃР° СЃРІРµС‚РѕРґРёРѕРґРѕРІ
     d90:	90 d5       	rcall	.+2848   	; 0x18b2 <GetTick>
     d92:	89 30       	cpi	r24, 0x09	; 9
     d94:	97 40       	sbci	r25, 0x07	; 7
     d96:	e0 f3       	brcs	.-8      	; 0xd90 <main+0xa2>
 	
	if (color_angle!=0)   //РµСЃР»Рё СЂРµР¶РёРј Р·Р°С…РІР°С‚Р° С†РІРµС‚Р° Р±С‹Р» СѓСЃС‚Р°РЅРѕРІР»РµРЅ, С‚Рѕ РѕС‚РєР»СЋС‡Р°РµРј Р°РЅРёРјР°С†РёСЋ Рё СѓСЃС‚Р°РЅР°РІР»РёРІР°РµРј С†РІРµС‚ РґР»СЏ
     d98:	80 91 ac 00 	lds	r24, 0x00AC	; 0x8000ac <color_angle>
     d9c:	90 91 ad 00 	lds	r25, 0x00AD	; 0x8000ad <color_angle+0x1>
     da0:	89 2b       	or	r24, r25
     da2:	21 f0       	breq	.+8      	; 0xdac <main+0xbe>
 	{		 
		led_config();	
     da4:	c1 dd       	rcall	.-1150   	; 0x928 <led_config>
		flag_start_led = 0;       
     da6:	10 92 b2 00 	sts	0x00B2, r1	; 0x8000b2 <flag_start_led>
     daa:	01 c0       	rjmp	.+2      	; 0xdae <main+0xc0>
 	}
	else led_config();
     dac:	bd dd       	rcall	.-1158   	; 0x928 <led_config>
	
	start_program_flag = 1;
     dae:	81 e0       	ldi	r24, 0x01	; 1
     db0:	80 93 86 00 	sts	0x0086, r24	; 0x800086 <start_program_flag>
	Menu_Navigate(&Main_menu);	//Р·Р°РїСѓСЃРє СЂР°Р±РѕС‚С‹ MicroMenu
     db4:	86 ea       	ldi	r24, 0xA6	; 166
     db6:	90 e0       	ldi	r25, 0x00	; 0
     db8:	06 de       	rcall	.-1012   	; 0x9c6 <Menu_Navigate>
__attribute__ ((__always_inline__))
void wdt_enable (const uint8_t value)
{
	if (_SFR_IO_REG_P (_WD_CONTROL_REG))
	{
		__asm__ __volatile__ (
     dba:	9f e0       	ldi	r25, 0x0F	; 15
     dbc:	88 e1       	ldi	r24, 0x18	; 24
     dbe:	0f b6       	in	r0, 0x3f	; 63
     dc0:	f8 94       	cli
     dc2:	a8 95       	wdr
     dc4:	81 bd       	out	0x21, r24	; 33
     dc6:	0f be       	out	0x3f, r0	; 63
     dc8:	91 bd       	out	0x21, r25	; 33
	
	static uint8_t input_rtc_flag;		//С„Р»Р°Рі РЅРѕРІРѕР№ СЃРµРєСѓРЅРґС‹, СЃРёРіРЅР°Р» Рѕ РєРѕС‚РѕСЂРѕР№ РїСЂРёС…РѕРґРёС‚ РѕС‚ ds1307	

	if ((!RTC_INPUT)&&(!input_rtc_flag))	
	{
		input_rtc_flag = 1;  //СЃРґРµР»Р°РЅРѕ, С‡С‚РѕР±С‹ РѕР±СЂР°Р±РѕС‚РєР° РїСЂРµСЂС‹РІР°РЅРёСЏ РѕС‚ ds13007 РІС‹РїРѕР»РЅСЏР»Р°СЃСЊ С‚РѕР»СЊРєРѕ РѕРґРёРЅ СЂР°Р· РЅР° РІРµСЃСЊ РЅРёР·РєРёР№ СѓСЂРѕРІРµРЅСЊ
     dca:	01 e0       	ldi	r16, 0x01	; 1
				i = 0;
				if (Status == STATUS_MAIN) {single_animation_flag = 0; Menu_Navigate(&mode_light);}   //РµСЃР»Рё РІ РѕСЃРЅРѕРІРЅРѕРј СЂРµР¶РёРјРµ - Р·Р°С…РѕРґРёРј РІ РјРµРЅСЋ РїРѕРґСЃРІРµС‚РєРё
			}break;	
			case BUTTON_MINUS:
			{
				i = -1;
     dcc:	ff 24       	eor	r15, r15
     dce:	fa 94       	dec	r15
		
	wdt_enable(WDTO_2S);	//СЃС‚РѕСЂРѕР¶РµРІРѕР№ С‚Р°Р№РјРµСЂ РЅР° 2 СЃРµРєСѓРЅРґС‹ РЅР° РІСЃСЏРєРёР№ СЃР»СѓС‡Р°Р№
	
while (1)
{	
	asm("WDR");   //СЃР±СЂРѕСЃ С‚Р°Р№РјРµСЂР° 		
     dd0:	a8 95       	wdr
	
	static uint8_t input_rtc_flag;		//С„Р»Р°Рі РЅРѕРІРѕР№ СЃРµРєСѓРЅРґС‹, СЃРёРіРЅР°Р» Рѕ РєРѕС‚РѕСЂРѕР№ РїСЂРёС…РѕРґРёС‚ РѕС‚ ds1307	

	if ((!RTC_INPUT)&&(!input_rtc_flag))	
     dd2:	b5 9b       	sbis	0x16, 5	; 22
     dd4:	25 c0       	rjmp	.+74     	; 0xe20 <main+0x132>
     dd6:	80 91 82 00 	lds	r24, 0x0082	; 0x800082 <input_rtc_flag.2388>
     dda:	81 11       	cpse	r24, r1
     ddc:	21 c0       	rjmp	.+66     	; 0xe20 <main+0x132>
	{
		input_rtc_flag = 1;  //СЃРґРµР»Р°РЅРѕ, С‡С‚РѕР±С‹ РѕР±СЂР°Р±РѕС‚РєР° РїСЂРµСЂС‹РІР°РЅРёСЏ РѕС‚ ds13007 РІС‹РїРѕР»РЅСЏР»Р°СЃСЊ С‚РѕР»СЊРєРѕ РѕРґРёРЅ СЂР°Р· РЅР° РІРµСЃСЊ РЅРёР·РєРёР№ СѓСЂРѕРІРµРЅСЊ
     dde:	00 93 82 00 	sts	0x0082, r16	; 0x800082 <input_rtc_flag.2388>
		
		total_us += (uint32_t)correct_us; //РїРѕРґСЃС‡РµС‚ РЅР°Р±РµР¶Р°РІС€РµР№ РєРѕСЂСЂРµРєС†РёРё
     de2:	20 91 c3 00 	lds	r18, 0x00C3	; 0x8000c3 <correct_us>
     de6:	30 91 c4 00 	lds	r19, 0x00C4	; 0x8000c4 <correct_us+0x1>
     dea:	80 91 c5 00 	lds	r24, 0x00C5	; 0x8000c5 <total_us>
     dee:	90 91 c6 00 	lds	r25, 0x00C6	; 0x8000c6 <total_us+0x1>
     df2:	a0 91 c7 00 	lds	r26, 0x00C7	; 0x8000c7 <total_us+0x2>
     df6:	b0 91 c8 00 	lds	r27, 0x00C8	; 0x8000c8 <total_us+0x3>
     dfa:	82 0f       	add	r24, r18
     dfc:	93 1f       	adc	r25, r19
     dfe:	a1 1d       	adc	r26, r1
     e00:	b1 1d       	adc	r27, r1
     e02:	80 93 c5 00 	sts	0x00C5, r24	; 0x8000c5 <total_us>
     e06:	90 93 c6 00 	sts	0x00C6, r25	; 0x8000c6 <total_us+0x1>
     e0a:	a0 93 c7 00 	sts	0x00C7, r26	; 0x8000c7 <total_us+0x2>
     e0e:	b0 93 c8 00 	sts	0x00C8, r27	; 0x8000c8 <total_us+0x3>
		if (total_us >= 10000000 ) start_correct_flag = 1;  //РІС‹РєР»Р°РґРєРё РІ excel С„Р°Р№Р»Рµ
     e12:	80 38       	cpi	r24, 0x80	; 128
     e14:	96 49       	sbci	r25, 0x96	; 150
     e16:	a8 49       	sbci	r26, 0x98	; 152
     e18:	b1 05       	cpc	r27, r1
     e1a:	10 f0       	brcs	.+4      	; 0xe20 <main+0x132>
     e1c:	00 93 c1 00 	sts	0x00C1, r16	; 0x8000c1 <start_correct_flag>
	}
	if (RTC_INPUT&&input_rtc_flag)	
     e20:	b5 99       	sbic	0x16, 5	; 22
     e22:	0f c0       	rjmp	.+30     	; 0xe42 <main+0x154>
     e24:	80 91 82 00 	lds	r24, 0x0082	; 0x800082 <input_rtc_flag.2388>
     e28:	88 23       	and	r24, r24
     e2a:	59 f0       	breq	.+22     	; 0xe42 <main+0x154>
	{
		input_rtc_flag = 0;
     e2c:	10 92 82 00 	sts	0x0082, r1	; 0x800082 <input_rtc_flag.2388>
		if ((Status == STATUS_MAIN)&&(!single_animation_flag))	time_manager();	//РѕР±СЂР°Р±РѕС‚РєР° СЃРёРіРЅР°Р»Р° РѕС‚ ds1307 		 
     e30:	80 91 b0 00 	lds	r24, 0x00B0	; 0x8000b0 <Status>
     e34:	81 11       	cpse	r24, r1
     e36:	05 c0       	rjmp	.+10     	; 0xe42 <main+0x154>
     e38:	80 91 85 00 	lds	r24, 0x0085	; 0x800085 <single_animation_flag>
     e3c:	81 11       	cpse	r24, r1
     e3e:	01 c0       	rjmp	.+2      	; 0xe42 <main+0x154>
     e40:	e2 dd       	rcall	.-1084   	; 0xa06 <time_manager>
	}  
	 
	if (flag_settings_delay)	stop_delay();		//Р·Р°РґРµСЂР¶РєР° РІС‹С…РѕРґР° РёР· РЅР°СЃС‚СЂРѕРµРє (5 СЃРµРєСѓРЅРґ)
     e42:	80 91 c2 00 	lds	r24, 0x00C2	; 0x8000c2 <flag_settings_delay>
     e46:	88 23       	and	r24, r24
     e48:	69 f0       	breq	.+26     	; 0xe64 <main+0x176>
/************************************************************************/
/*					Р—Р°РґРµСЂР¶РєР° РІС‹С…РѕРґР° РёР· РЅР°СЃС‚СЂРѕРµРє                         */
/************************************************************************/
static void stop_delay(void)
{	
	if (GetTick() - delay_for_exit > 5000) 
     e4a:	33 d5       	rcall	.+2662   	; 0x18b2 <GetTick>
     e4c:	20 91 8d 00 	lds	r18, 0x008D	; 0x80008d <delay_for_exit>
     e50:	30 91 8e 00 	lds	r19, 0x008E	; 0x80008e <delay_for_exit+0x1>
     e54:	82 1b       	sub	r24, r18
     e56:	93 0b       	sbc	r25, r19
     e58:	89 38       	cpi	r24, 0x89	; 137
     e5a:	93 41       	sbci	r25, 0x13	; 19
     e5c:	18 f0       	brcs	.+6      	; 0xe64 <main+0x176>
	{
		Menu_Navigate(&Main_menu);
     e5e:	86 ea       	ldi	r24, 0xA6	; 166
     e60:	90 e0       	ldi	r25, 0x00	; 0
     e62:	b1 dd       	rcall	.-1182   	; 0x9c6 <Menu_Navigate>
		input_rtc_flag = 0;
		if ((Status == STATUS_MAIN)&&(!single_animation_flag))	time_manager();	//РѕР±СЂР°Р±РѕС‚РєР° СЃРёРіРЅР°Р»Р° РѕС‚ ds1307 		 
	}  
	 
	if (flag_settings_delay)	stop_delay();		//Р·Р°РґРµСЂР¶РєР° РІС‹С…РѕРґР° РёР· РЅР°СЃС‚СЂРѕРµРє (5 СЃРµРєСѓРЅРґ)
 	if (flag_start_led)			led_delay();		//Р·Р°РїСѓСЃРєР°РµС‚ РѕР±СЂР°Р±РѕС‚РєСѓ СЃРјРµРЅС‹ С†РІРµС‚Р°
     e64:	80 91 b2 00 	lds	r24, 0x00B2	; 0x8000b2 <flag_start_led>
     e68:	81 11       	cpse	r24, r1
     e6a:	49 dd       	rcall	.-1390   	; 0x8fe <led_delay>
	if (buzzer_flag)			start_buzzer();		//РІРєР»СЋС‡РµРЅРёРµ Р±СѓРґРёР»СЊРЅРёРєР°
     e6c:	80 91 83 00 	lds	r24, 0x0083	; 0x800083 <buzzer_flag>
     e70:	81 11       	cpse	r24, r1
     e72:	3d d9       	rcall	.-3462   	; 0xee <start_buzzer>
	if (single_animation_flag)	single_animation();	//Р°РЅРёРјР°С†РёСЏ РїРµСЂРµРєР»СЋС‡РµРЅРёСЏ С†РёС„СЂ РїСЂРѕС‚РёРІ РѕС‚СЂР°РІР»РµРЅРёСЏ РєР°С‚РѕРґРѕРІ
     e74:	80 91 85 00 	lds	r24, 0x0085	; 0x800085 <single_animation_flag>
     e78:	88 23       	and	r24, r24
     e7a:	09 f4       	brne	.+2      	; 0xe7e <main+0x190>
     e7c:	4b c0       	rjmp	.+150    	; 0xf14 <main+0x226>
/************************************************************************/
/*			     РђРЅРёРјР°С†РёСЏ РїСЂРѕС‚РёРІ РѕС‚СЂР°РІР»РµРЅРёСЏ РєР°С‚РѕРґРѕРІ                     */
/************************************************************************/
static void single_animation(void)
{
	uint8_t arr[10] = {3,8,9,4,0,5,7,2,6,1};
     e7e:	8a e0       	ldi	r24, 0x0A	; 10
     e80:	e2 e6       	ldi	r30, 0x62	; 98
     e82:	f0 e0       	ldi	r31, 0x00	; 0
     e84:	de 01       	movw	r26, r28
     e86:	11 96       	adiw	r26, 0x01	; 1
     e88:	01 90       	ld	r0, Z+
     e8a:	0d 92       	st	X+, r0
     e8c:	8a 95       	dec	r24
     e8e:	e1 f7       	brne	.-8      	; 0xe88 <main+0x19a>
	static uint8_t num, index;
	
	Ind[num].lamp = arr[index];
     e90:	80 91 81 00 	lds	r24, 0x0081	; 0x800081 <num.2397>
     e94:	90 e0       	ldi	r25, 0x00	; 0
     e96:	fc 01       	movw	r30, r24
     e98:	ee 0f       	add	r30, r30
     e9a:	ff 1f       	adc	r31, r31
     e9c:	8e 0f       	add	r24, r30
     e9e:	9f 1f       	adc	r25, r31
     ea0:	fc 01       	movw	r30, r24
     ea2:	e1 56       	subi	r30, 0x61	; 97
     ea4:	ff 4f       	sbci	r31, 0xFF	; 255
     ea6:	80 91 80 00 	lds	r24, 0x0080	; 0x800080 <index.2398>
     eaa:	a1 e0       	ldi	r26, 0x01	; 1
     eac:	b0 e0       	ldi	r27, 0x00	; 0
     eae:	ac 0f       	add	r26, r28
     eb0:	bd 1f       	adc	r27, r29
     eb2:	a8 0f       	add	r26, r24
     eb4:	b1 1d       	adc	r27, r1
     eb6:	8c 91       	ld	r24, X
     eb8:	80 83       	st	Z, r24
	
	if (GetTick() - delay_animation > 50)
     eba:	fb d4       	rcall	.+2550   	; 0x18b2 <GetTick>
     ebc:	20 91 8b 00 	lds	r18, 0x008B	; 0x80008b <delay_animation>
     ec0:	30 91 8c 00 	lds	r19, 0x008C	; 0x80008c <delay_animation+0x1>
     ec4:	82 1b       	sub	r24, r18
     ec6:	93 0b       	sbc	r25, r19
     ec8:	c3 97       	sbiw	r24, 0x33	; 51
     eca:	20 f1       	brcs	.+72     	; 0xf14 <main+0x226>
	{
		delay_animation = GetTick();
     ecc:	f2 d4       	rcall	.+2532   	; 0x18b2 <GetTick>
     ece:	90 93 8c 00 	sts	0x008C, r25	; 0x80008c <delay_animation+0x1>
     ed2:	80 93 8b 00 	sts	0x008B, r24	; 0x80008b <delay_animation>
		index++;
     ed6:	80 91 80 00 	lds	r24, 0x0080	; 0x800080 <index.2398>
     eda:	8f 5f       	subi	r24, 0xFF	; 255
     edc:	80 93 80 00 	sts	0x0080, r24	; 0x800080 <index.2398>
		if (index == 10)
     ee0:	8a 30       	cpi	r24, 0x0A	; 10
     ee2:	c1 f4       	brne	.+48     	; 0xf14 <main+0x226>
		{
			Ind[num].lamp = Ind[num].clone;
     ee4:	80 91 81 00 	lds	r24, 0x0081	; 0x800081 <num.2397>
     ee8:	e8 2f       	mov	r30, r24
     eea:	f0 e0       	ldi	r31, 0x00	; 0
     eec:	9f 01       	movw	r18, r30
     eee:	22 0f       	add	r18, r18
     ef0:	33 1f       	adc	r19, r19
     ef2:	e2 0f       	add	r30, r18
     ef4:	f3 1f       	adc	r31, r19
     ef6:	e1 56       	subi	r30, 0x61	; 97
     ef8:	ff 4f       	sbci	r31, 0xFF	; 255
     efa:	92 81       	ldd	r25, Z+2	; 0x02
     efc:	90 83       	st	Z, r25
			num++;
     efe:	8f 5f       	subi	r24, 0xFF	; 255
     f00:	80 93 81 00 	sts	0x0081, r24	; 0x800081 <num.2397>
			index = 0;
     f04:	10 92 80 00 	sts	0x0080, r1	; 0x800080 <index.2398>
			if (num == 4)
     f08:	84 30       	cpi	r24, 0x04	; 4
     f0a:	21 f4       	brne	.+8      	; 0xf14 <main+0x226>
			{
				num = 0;
     f0c:	10 92 81 00 	sts	0x0081, r1	; 0x800081 <num.2397>
				single_animation_flag = 0;
     f10:	10 92 85 00 	sts	0x0085, r1	; 0x800085 <single_animation_flag>
	 
	if (flag_settings_delay)	stop_delay();		//Р·Р°РґРµСЂР¶РєР° РІС‹С…РѕРґР° РёР· РЅР°СЃС‚СЂРѕРµРє (5 СЃРµРєСѓРЅРґ)
 	if (flag_start_led)			led_delay();		//Р·Р°РїСѓСЃРєР°РµС‚ РѕР±СЂР°Р±РѕС‚РєСѓ СЃРјРµРЅС‹ С†РІРµС‚Р°
	if (buzzer_flag)			start_buzzer();		//РІРєР»СЋС‡РµРЅРёРµ Р±СѓРґРёР»СЊРЅРёРєР°
	if (single_animation_flag)	single_animation();	//Р°РЅРёРјР°С†РёСЏ РїРµСЂРµРєР»СЋС‡РµРЅРёСЏ С†РёС„СЂ РїСЂРѕС‚РёРІ РѕС‚СЂР°РІР»РµРЅРёСЏ РєР°С‚РѕРґРѕРІ
	if (therm_ready_flag)							//РµСЃР»Рё Р·Р°РїСЂРѕСЃ РЅР° РїСЂРµРѕР±СЂР°Р·РѕРІР°РЅРёРµ РѕС‚РїСЂР°РІР»РµРЅ, С‚Рѕ Р¶РґРµРј 750 РјСЃ Рё СЃС‡РёС‚С‹РІР°РµРј РґР°РЅРЅС‹Рµ Рѕ С‚РµРјРїРµСЂР°С‚СѓСЂРµ
     f14:	80 91 84 00 	lds	r24, 0x0084	; 0x800084 <therm_ready_flag>
     f18:	88 23       	and	r24, r24
     f1a:	79 f0       	breq	.+30     	; 0xf3a <main+0x24c>
	{
		if (GetTick() - therm_ready_delay > 750)
     f1c:	ca d4       	rcall	.+2452   	; 0x18b2 <GetTick>
     f1e:	20 91 89 00 	lds	r18, 0x0089	; 0x800089 <therm_ready_delay>
     f22:	30 91 8a 00 	lds	r19, 0x008A	; 0x80008a <therm_ready_delay+0x1>
     f26:	82 1b       	sub	r24, r18
     f28:	93 0b       	sbc	r25, r19
     f2a:	8f 3e       	cpi	r24, 0xEF	; 239
     f2c:	92 40       	sbci	r25, 0x02	; 2
     f2e:	28 f0       	brcs	.+10     	; 0xf3a <main+0x24c>
		{
			therm_ready_flag = 0;
     f30:	10 92 84 00 	sts	0x0084, r1	; 0x800084 <therm_ready_flag>
			therm_read_temperature(&temp_data);
     f34:	87 e8       	ldi	r24, 0x87	; 135
     f36:	90 e0       	ldi	r25, 0x00	; 0
     f38:	eb d9       	rcall	.-3114   	; 0x310 <therm_read_temperature>
/************************************************************************/
/*					 РћРїСЂРѕСЃ РєРЅРѕРїРѕРє Рё РЅР°РІРёРіР°С†РёСЏ                           */
/************************************************************************/
static void button_processing(void)
{
	enum ButtonValues state = GetButtonPress();
     f3a:	1a d9       	rcall	.-3532   	; 0x170 <GetButtonPress>
     f3c:	18 2f       	mov	r17, r24
	
	if (buzzer_flag&&(state != BUTTON_NONE))	
     f3e:	80 91 83 00 	lds	r24, 0x0083	; 0x800083 <buzzer_flag>
     f42:	88 23       	and	r24, r24
     f44:	39 f0       	breq	.+14     	; 0xf54 <main+0x266>
     f46:	16 30       	cpi	r17, 0x06	; 6
     f48:	09 f4       	brne	.+2      	; 0xf4c <main+0x25e>
     f4a:	42 cf       	rjmp	.-380    	; 0xdd0 <main+0xe2>
		{
			buzzer_flag = stop_buzzer();
     f4c:	0e d9       	rcall	.-3556   	; 0x16a <stop_buzzer>
     f4e:	80 93 83 00 	sts	0x0083, r24	; 0x800083 <buzzer_flag>
     f52:	3e cf       	rjmp	.-388    	; 0xdd0 <main+0xe2>
			return;
		}
	if (state != BUTTON_NONE)
     f54:	16 30       	cpi	r17, 0x06	; 6
     f56:	09 f4       	brne	.+2      	; 0xf5a <main+0x26c>
     f58:	3b cf       	rjmp	.-394    	; 0xdd0 <main+0xe2>
/************************************************************************/
/*      Р—Р°РїСѓСЃРє Р·Р°РґРµСЂР¶РєРё РІ 5 СЃРµРєСѓРЅРґ РґР»СЏ РІС‹С…РѕРґР° РёР· СЂРµР¶РёРјР° РЅР°СЃС‚СЂРѕРµРє       */
/************************************************************************/
static void start_delay(void)  
{
	flag_settings_delay = 1;
     f5a:	00 93 c2 00 	sts	0x00C2, r16	; 0x8000c2 <flag_settings_delay>
	delay_for_exit = GetTick();
     f5e:	a9 d4       	rcall	.+2386   	; 0x18b2 <GetTick>
     f60:	90 93 8e 00 	sts	0x008E, r25	; 0x80008e <delay_for_exit+0x1>
     f64:	80 93 8d 00 	sts	0x008D, r24	; 0x80008d <delay_for_exit>
			return;
		}
	if (state != BUTTON_NONE)
	{
		start_delay();
		switch (state)
     f68:	12 30       	cpi	r17, 0x02	; 2
     f6a:	09 f4       	brne	.+2      	; 0xf6e <main+0x280>
     f6c:	4f c0       	rjmp	.+158    	; 0x100c <main+0x31e>
     f6e:	28 f4       	brcc	.+10     	; 0xf7a <main+0x28c>
     f70:	11 23       	and	r17, r17
     f72:	59 f0       	breq	.+22     	; 0xf8a <main+0x29c>
     f74:	11 30       	cpi	r17, 0x01	; 1
     f76:	99 f1       	breq	.+102    	; 0xfde <main+0x2f0>
     f78:	2b cf       	rjmp	.-426    	; 0xdd0 <main+0xe2>
     f7a:	14 30       	cpi	r17, 0x04	; 4
     f7c:	09 f4       	brne	.+2      	; 0xf80 <main+0x292>
     f7e:	3b c0       	rjmp	.+118    	; 0xff6 <main+0x308>
     f80:	18 f1       	brcs	.+70     	; 0xfc8 <main+0x2da>
     f82:	15 30       	cpi	r17, 0x05	; 5
     f84:	09 f4       	brne	.+2      	; 0xf88 <main+0x29a>
     f86:	6b c0       	rjmp	.+214    	; 0x105e <main+0x370>
     f88:	23 cf       	rjmp	.-442    	; 0xdd0 <main+0xe2>
		{
			case BUTTON_PLUS:
			{
				i = 1;
     f8a:	00 93 b1 00 	sts	0x00B1, r16	; 0x8000b1 <i>
				if (Status != STATUS_MAIN)  Menu_Navigate(MENU_PREVIOUS); // РµСЃР»Рё РЅРµ РІ РѕСЃРЅРѕРІРЅРѕРј СЂРµР¶РёРјРµ, С‚Рѕ РєРЅРѕРїРєР° РїР»СЋСЃ
     f8e:	80 91 b0 00 	lds	r24, 0x00B0	; 0x8000b0 <Status>
     f92:	88 23       	and	r24, r24
     f94:	41 f0       	breq	.+16     	; 0xfa6 <main+0x2b8>
     f96:	e0 91 60 00 	lds	r30, 0x0060	; 0x800060 <__DATA_REGION_ORIGIN__>
     f9a:	f0 91 61 00 	lds	r31, 0x0061	; 0x800061 <__DATA_REGION_ORIGIN__+0x1>
     f9e:	32 96       	adiw	r30, 0x02	; 2
     fa0:	85 91       	lpm	r24, Z+
     fa2:	94 91       	lpm	r25, Z
     fa4:	10 dd       	rcall	.-1504   	; 0x9c6 <Menu_Navigate>
				if ((Status == STATUS_MAIN)&&LED.mode!=1) //РёРЅР°С‡Рµ РѕСЃС‚Р°РЅРѕРІРєР°/Р·Р°РїСѓСЃРє РїРѕРґСЃРІРµС‚РєРё
     fa6:	80 91 b0 00 	lds	r24, 0x00B0	; 0x8000b0 <Status>
     faa:	81 11       	cpse	r24, r1
     fac:	11 cf       	rjmp	.-478    	; 0xdd0 <main+0xe2>
     fae:	80 91 b3 00 	lds	r24, 0x00B3	; 0x8000b3 <LED>
     fb2:	81 30       	cpi	r24, 0x01	; 1
     fb4:	09 f4       	brne	.+2      	; 0xfb8 <main+0x2ca>
     fb6:	0c cf       	rjmp	.-488    	; 0xdd0 <main+0xe2>
				{
						if ((LED.mode != 1)&&(flag_start_led == 1))	led_color_stop();   //РѕСЃС‚Р°РЅРѕРІРєР° РµСЃР»Рё СЂРµР¶РёРј РЅРµ РїРµСЂРІС‹Р№ Рё РјС‹ РµС‰Рµ РЅРµ СЃРѕС…СЂР°РЅРёР»Рё С†РІРµС‚
     fb8:	80 91 b2 00 	lds	r24, 0x00B2	; 0x8000b2 <flag_start_led>
     fbc:	81 30       	cpi	r24, 0x01	; 1
     fbe:	11 f4       	brne	.+4      	; 0xfc4 <main+0x2d6>
     fc0:	f1 dc       	rcall	.-1566   	; 0x9a4 <led_color_stop>
     fc2:	06 cf       	rjmp	.-500    	; 0xdd0 <main+0xe2>
						else	led_color_run();						
     fc4:	f8 dc       	rcall	.-1552   	; 0x9b6 <led_color_run>
     fc6:	04 cf       	rjmp	.-504    	; 0xdd0 <main+0xe2>
				}  
			}break;	
			case BUTTON_PLUS_PUSH:
			{
				i = 0;
     fc8:	10 92 b1 00 	sts	0x00B1, r1	; 0x8000b1 <i>
				if (Status == STATUS_MAIN) {single_animation_flag = 0; Menu_Navigate(&mode_light);}   //РµСЃР»Рё РІ РѕСЃРЅРѕРІРЅРѕРј СЂРµР¶РёРјРµ - Р·Р°С…РѕРґРёРј РІ РјРµРЅСЋ РїРѕРґСЃРІРµС‚РєРё
     fcc:	80 91 b0 00 	lds	r24, 0x00B0	; 0x8000b0 <Status>
     fd0:	81 11       	cpse	r24, r1
     fd2:	fe ce       	rjmp	.-516    	; 0xdd0 <main+0xe2>
     fd4:	10 92 85 00 	sts	0x0085, r1	; 0x800085 <single_animation_flag>
     fd8:	86 e3       	ldi	r24, 0x36	; 54
     fda:	90 e0       	ldi	r25, 0x00	; 0
     fdc:	4a c0       	rjmp	.+148    	; 0x1072 <main+0x384>
			}break;	
			case BUTTON_MINUS:
			{
				i = -1;
     fde:	f0 92 b1 00 	sts	0x00B1, r15	; 0x8000b1 <i>
				if (Status != STATUS_MAIN)Menu_Navigate(MENU_NEXT);   // РµСЃР»Рё РЅРµ РІ РѕСЃРЅРѕРІРЅРѕРј СЂРµР¶РёРјРµ, С‚Рѕ РєРЅРѕРїРєР° РјРёРЅСѓСЃ
     fe2:	80 91 b0 00 	lds	r24, 0x00B0	; 0x8000b0 <Status>
     fe6:	88 23       	and	r24, r24
     fe8:	09 f4       	brne	.+2      	; 0xfec <main+0x2fe>
     fea:	f2 ce       	rjmp	.-540    	; 0xdd0 <main+0xe2>
     fec:	e0 91 60 00 	lds	r30, 0x0060	; 0x800060 <__DATA_REGION_ORIGIN__>
     ff0:	f0 91 61 00 	lds	r31, 0x0061	; 0x800061 <__DATA_REGION_ORIGIN__+0x1>
     ff4:	31 c0       	rjmp	.+98     	; 0x1058 <main+0x36a>
			}break;	
			case BUTTON_MINUS_PUSH:
			{
				i = 0;
     ff6:	10 92 b1 00 	sts	0x00B1, r1	; 0x8000b1 <i>
				if (Status == STATUS_MAIN) {single_animation_flag = 0; Menu_Navigate(&num_alarm);}
     ffa:	80 91 b0 00 	lds	r24, 0x00B0	; 0x8000b0 <Status>
     ffe:	81 11       	cpse	r24, r1
    1000:	e7 ce       	rjmp	.-562    	; 0xdd0 <main+0xe2>
    1002:	10 92 85 00 	sts	0x0085, r1	; 0x800085 <single_animation_flag>
    1006:	86 e5       	ldi	r24, 0x56	; 86
    1008:	90 e0       	ldi	r25, 0x00	; 0
    100a:	33 c0       	rjmp	.+102    	; 0x1072 <main+0x384>
			}break;		
			case BUTTON_ENTER:
			{
				i = 0;
    100c:	10 92 b1 00 	sts	0x00B1, r1	; 0x8000b1 <i>
				if (Status != STATUS_MAIN)
    1010:	80 91 b0 00 	lds	r24, 0x00B0	; 0x8000b0 <Status>
    1014:	88 23       	and	r24, r24
    1016:	09 f4       	brne	.+2      	; 0x101a <main+0x32c>
    1018:	db ce       	rjmp	.-586    	; 0xdd0 <main+0xe2>
				{
					//Р±С‹СЃС‚СЂС‹Р№ РІС‹С…РѕРґ РёР· РЅР°СЃС‚СЂРѕРµРє, РµСЃР»Рё С„СѓРЅРєС†РёРё РЅРµ Р°РєС‚РёРІРёСЂРѕРІР°РЅС‹
					if(((Status == STATUS_ALARM)&&Alarm[alarm_number].Al_status==0)||((Status == STATUS_LED)&&LED.mode==1))  Menu_Navigate(&Main_menu);
    101a:	82 30       	cpi	r24, 0x02	; 2
    101c:	79 f4       	brne	.+30     	; 0x103c <main+0x34e>
    101e:	80 91 ab 00 	lds	r24, 0x00AB	; 0x8000ab <alarm_number>
    1022:	90 e0       	ldi	r25, 0x00	; 0
    1024:	fc 01       	movw	r30, r24
    1026:	ee 0f       	add	r30, r30
    1028:	ff 1f       	adc	r31, r31
    102a:	8e 0f       	add	r24, r30
    102c:	9f 1f       	adc	r25, r31
    102e:	fc 01       	movw	r30, r24
    1030:	ed 56       	subi	r30, 0x6D	; 109
    1032:	ff 4f       	sbci	r31, 0xFF	; 255
    1034:	82 81       	ldd	r24, Z+2	; 0x02
    1036:	81 11       	cpse	r24, r1
    1038:	0a c0       	rjmp	.+20     	; 0x104e <main+0x360>
    103a:	06 c0       	rjmp	.+12     	; 0x1048 <main+0x35a>
    103c:	81 30       	cpi	r24, 0x01	; 1
    103e:	39 f4       	brne	.+14     	; 0x104e <main+0x360>
    1040:	80 91 b3 00 	lds	r24, 0x00B3	; 0x8000b3 <LED>
    1044:	81 30       	cpi	r24, 0x01	; 1
    1046:	19 f4       	brne	.+6      	; 0x104e <main+0x360>
    1048:	86 ea       	ldi	r24, 0xA6	; 166
    104a:	90 e0       	ldi	r25, 0x00	; 0
    104c:	12 c0       	rjmp	.+36     	; 0x1072 <main+0x384>
					else Menu_Navigate(MENU_CHILD);
    104e:	e0 91 60 00 	lds	r30, 0x0060	; 0x800060 <__DATA_REGION_ORIGIN__>
    1052:	f0 91 61 00 	lds	r31, 0x0061	; 0x800061 <__DATA_REGION_ORIGIN__+0x1>
    1056:	34 96       	adiw	r30, 0x04	; 4
    1058:	85 91       	lpm	r24, Z+
    105a:	94 91       	lpm	r25, Z
    105c:	0a c0       	rjmp	.+20     	; 0x1072 <main+0x384>
				}
			}break;	
			case BUTTON_ENTER_PUSH:
			{
				i = 0;
    105e:	10 92 b1 00 	sts	0x00B1, r1	; 0x8000b1 <i>
				if (Status == STATUS_MAIN) {single_animation_flag = 0; Menu_Navigate(&am_pm);}
    1062:	80 91 b0 00 	lds	r24, 0x00B0	; 0x8000b0 <Status>
    1066:	81 11       	cpse	r24, r1
    1068:	b3 ce       	rjmp	.-666    	; 0xdd0 <main+0xe2>
    106a:	10 92 85 00 	sts	0x0085, r1	; 0x800085 <single_animation_flag>
    106e:	8e e9       	ldi	r24, 0x9E	; 158
    1070:	90 e0       	ldi	r25, 0x00	; 0
    1072:	a9 dc       	rcall	.-1710   	; 0x9c6 <Menu_Navigate>
    1074:	ad ce       	rjmp	.-678    	; 0xdd0 <main+0xe2>

00001076 <constrain>:

/************************************************************************/
/*	возвращает зациклинное значение параметра, ограниченное min и max   */
/************************************************************************/
static void constrain(int8_t *parameter, int8_t min, int8_t max)
{
    1076:	fc 01       	movw	r30, r24
	if (*parameter<min)
    1078:	80 81       	ld	r24, Z
    107a:	86 17       	cp	r24, r22
    107c:	14 f4       	brge	.+4      	; 0x1082 <constrain+0xc>
	{
		*parameter=max;
    107e:	40 83       	st	Z, r20
		return;
    1080:	08 95       	ret
	}
	if (*parameter>max)
    1082:	48 17       	cp	r20, r24
    1084:	0c f4       	brge	.+2      	; 0x1088 <constrain+0x12>
	{
		*parameter=min;
    1086:	60 83       	st	Z, r22
    1088:	08 95       	ret

0000108a <show_main>:
/************************************************************************/
/*        Функция выхода в основной режим - отображение времени         */
/************************************************************************/
void show_main(void)
{
	if (time_change_flag)    //если были настройки
    108a:	80 91 ae 00 	lds	r24, 0x00AE	; 0x8000ae <time_change_flag>
    108e:	88 23       	and	r24, r24
    1090:	69 f0       	breq	.+26     	; 0x10ac <show_main+0x22>
	{
		RTC_SetValue(RTC_SEC_ADR, 00);	//записать 0 и запустить счет
    1092:	60 e0       	ldi	r22, 0x00	; 0
    1094:	80 e0       	ldi	r24, 0x00	; 0
    1096:	ce d3       	rcall	.+1948   	; 0x1834 <RTC_SetValue>
		time_change_flag = 0;
    1098:	10 92 ae 00 	sts	0x00AE, r1	; 0x8000ae <time_change_flag>
		total_us = 0;	//обнулить счетчик корректировочных микросекунд 
    109c:	10 92 c5 00 	sts	0x00C5, r1	; 0x8000c5 <total_us>
    10a0:	10 92 c6 00 	sts	0x00C6, r1	; 0x8000c6 <total_us+0x1>
    10a4:	10 92 c7 00 	sts	0x00C7, r1	; 0x8000c7 <total_us+0x2>
    10a8:	10 92 c8 00 	sts	0x00C8, r1	; 0x8000c8 <total_us+0x3>
	}
	Ind[0].blink=Ind[1].blink=Ind[2].blink=Ind[3].blink=0;  
    10ac:	10 92 a9 00 	sts	0x00A9, r1	; 0x8000a9 <Ind+0xa>
    10b0:	10 92 a6 00 	sts	0x00A6, r1	; 0x8000a6 <Ind+0x7>
    10b4:	10 92 a3 00 	sts	0x00A3, r1	; 0x8000a3 <Ind+0x4>
    10b8:	10 92 a0 00 	sts	0x00A0, r1	; 0x8000a0 <Ind+0x1>
	flag_settings_delay = 0;	
    10bc:	10 92 c2 00 	sts	0x00C2, r1	; 0x8000c2 <flag_settings_delay>
	selectable_alarm_point = 0;	//отключаем точки на будильниках. Если Al_status не равен нулю, то все равно точка гореть будет.
    10c0:	10 92 af 00 	sts	0x00AF, r1	; 0x8000af <selectable_alarm_point>
	no_points_global = 0;		//показать точки на будильниках
    10c4:	10 92 c0 00 	sts	0x00C0, r1	; 0x8000c0 <no_points_global>
	correct_us = (uint16_t)abs(Time.Correct_sec*10000000/86400);  //константа
    10c8:	a0 91 bf 00 	lds	r26, 0x00BF	; 0x8000bf <Time+0x9>
    10cc:	0a 2e       	mov	r0, r26
    10ce:	00 0c       	add	r0, r0
    10d0:	bb 0b       	sbc	r27, r27
    10d2:	20 e8       	ldi	r18, 0x80	; 128
    10d4:	36 e9       	ldi	r19, 0x96	; 150
    10d6:	48 e9       	ldi	r20, 0x98	; 152
    10d8:	50 e0       	ldi	r21, 0x00	; 0
    10da:	c0 d4       	rcall	.+2432   	; 0x1a5c <__mulshisi3>
    10dc:	20 e8       	ldi	r18, 0x80	; 128
    10de:	31 e5       	ldi	r19, 0x51	; 81
    10e0:	41 e0       	ldi	r20, 0x01	; 1
    10e2:	50 e0       	ldi	r21, 0x00	; 0
    10e4:	9f d4       	rcall	.+2366   	; 0x1a24 <__divmodsi4>
    10e6:	c9 01       	movw	r24, r18
    10e8:	37 ff       	sbrs	r19, 7
    10ea:	04 c0       	rjmp	.+8      	; 0x10f4 <show_main+0x6a>
    10ec:	88 27       	eor	r24, r24
    10ee:	99 27       	eor	r25, r25
    10f0:	82 1b       	sub	r24, r18
    10f2:	93 0b       	sbc	r25, r19
    10f4:	90 93 c4 00 	sts	0x00C4, r25	; 0x8000c4 <correct_us+0x1>
    10f8:	80 93 c3 00 	sts	0x00C3, r24	; 0x8000c3 <correct_us>
	Status = STATUS_MAIN;
    10fc:	10 92 b0 00 	sts	0x00B0, r1	; 0x8000b0 <Status>
	save_to_eeprom();			//если были какие-то изменения в настройках, то они сохранятся в EEPROM
    1100:	d4 d9       	rcall	.-3160   	; 0x4aa <save_to_eeprom>
	time_manager();
    1102:	81 cc       	rjmp	.-1790   	; 0xa06 <time_manager>

00001104 <set_am_pm>:
/************************************************************************/
/*                     Установить режим отображения                     */
/************************************************************************/
void set_am_pm(void)
{		
	Status = STATUS_SETTINGS;	
    1104:	83 e0       	ldi	r24, 0x03	; 3
    1106:	80 93 b0 00 	sts	0x00B0, r24	; 0x8000b0 <Status>
	no_points_global = 1;  //убрать точки с будильников
    110a:	81 e0       	ldi	r24, 0x01	; 1
    110c:	80 93 c0 00 	sts	0x00C0, r24	; 0x8000c0 <no_points_global>
	
	if (i != 0)	Time.am_pm^=(0x01); //инверсия бита статуса
    1110:	90 91 b1 00 	lds	r25, 0x00B1	; 0x8000b1 <i>
    1114:	99 23       	and	r25, r25
    1116:	29 f0       	breq	.+10     	; 0x1122 <set_am_pm+0x1e>
    1118:	90 91 be 00 	lds	r25, 0x00BE	; 0x8000be <Time+0x8>
    111c:	89 27       	eor	r24, r25
    111e:	80 93 be 00 	sts	0x00BE, r24	; 0x8000be <Time+0x8>
	
	Time.Hour=RTC_get(RTC_HOUR_ADR);
    1122:	82 e0       	ldi	r24, 0x02	; 2
    1124:	a0 d3       	rcall	.+1856   	; 0x1866 <RTC_get>
    1126:	80 93 b7 00 	sts	0x00B7, r24	; 0x8000b7 <Time+0x1>
	
	DIVIDING_POINT_OFF;  //гасим точку
    112a:	a8 98       	cbi	0x15, 0	; 21
	Ind[0].blink=Ind[1].blink=1;   //моргаем часами
    112c:	81 e0       	ldi	r24, 0x01	; 1
    112e:	80 93 a3 00 	sts	0x00A3, r24	; 0x8000a3 <Ind+0x4>
    1132:	80 93 a0 00 	sts	0x00A0, r24	; 0x8000a0 <Ind+0x1>

 	if (Time.am_pm==0)
    1136:	90 91 be 00 	lds	r25, 0x00BE	; 0x8000be <Time+0x8>
    113a:	91 11       	cpse	r25, r1
    113c:	05 c0       	rjmp	.+10     	; 0x1148 <set_am_pm+0x44>
 	{
 		Ind[0].lamp = 2;
    113e:	82 e0       	ldi	r24, 0x02	; 2
    1140:	80 93 9f 00 	sts	0x009F, r24	; 0x80009f <Ind>
 		Ind[1].lamp = 4;
    1144:	84 e0       	ldi	r24, 0x04	; 4
    1146:	03 c0       	rjmp	.+6      	; 0x114e <set_am_pm+0x4a>
 	}
 	else
 	{
 		Ind[0].lamp = 1;
    1148:	80 93 9f 00 	sts	0x009F, r24	; 0x80009f <Ind>
 		Ind[1].lamp = 2;
    114c:	82 e0       	ldi	r24, 0x02	; 2
    114e:	80 93 a2 00 	sts	0x00A2, r24	; 0x8000a2 <Ind+0x3>
 	}
 	Ind[2].lamp = Ind[3].lamp = 10;
    1152:	8a e0       	ldi	r24, 0x0A	; 10
    1154:	80 93 a8 00 	sts	0x00A8, r24	; 0x8000a8 <Ind+0x9>
    1158:	80 93 a5 00 	sts	0x00A5, r24	; 0x8000a5 <Ind+0x6>
    115c:	08 95       	ret

0000115e <set_hours>:
/************************************************************************/
/*                      Установить часы                                 */
/************************************************************************/
void set_hours(void)
{
	Time.Hour=RTC_get(RTC_HOUR_ADR);
    115e:	82 e0       	ldi	r24, 0x02	; 2
    1160:	82 d3       	rcall	.+1796   	; 0x1866 <RTC_get>
    1162:	80 93 b7 00 	sts	0x00B7, r24	; 0x8000b7 <Time+0x1>
	Time.Min=RTC_get(RTC_MIN_ADR);
    1166:	81 e0       	ldi	r24, 0x01	; 1
    1168:	7e d3       	rcall	.+1788   	; 0x1866 <RTC_get>
    116a:	80 93 b8 00 	sts	0x00B8, r24	; 0x8000b8 <Time+0x2>
	
	Time.Hour = ((Time.Hour>>4)*10) + (Time.Hour&0x0F);
    116e:	80 91 b7 00 	lds	r24, 0x00B7	; 0x8000b7 <Time+0x1>
    1172:	98 2f       	mov	r25, r24
    1174:	92 95       	swap	r25
    1176:	9f 70       	andi	r25, 0x0F	; 15
    1178:	8f 70       	andi	r24, 0x0F	; 15
    117a:	2a e0       	ldi	r18, 0x0A	; 10
    117c:	92 9f       	mul	r25, r18
    117e:	80 0d       	add	r24, r0
    1180:	11 24       	eor	r1, r1
    1182:	80 93 b7 00 	sts	0x00B7, r24	; 0x8000b7 <Time+0x1>
	
	if (i!=0)
    1186:	80 91 b1 00 	lds	r24, 0x00B1	; 0x8000b1 <i>
    118a:	88 23       	and	r24, r24
    118c:	b1 f0       	breq	.+44     	; 0x11ba <set_hours+0x5c>
	{
		time_change_flag=1;  //флаг редактирования времени
    118e:	81 e0       	ldi	r24, 0x01	; 1
    1190:	80 93 ae 00 	sts	0x00AE, r24	; 0x8000ae <time_change_flag>
		RTC_SetValue(RTC_SEC_ADR, 0x80); //останавливаем счет
    1194:	60 e8       	ldi	r22, 0x80	; 128
    1196:	80 e0       	ldi	r24, 0x00	; 0
    1198:	4d d3       	rcall	.+1690   	; 0x1834 <RTC_SetValue>
		Time.Hour+=i;
    119a:	90 91 b7 00 	lds	r25, 0x00B7	; 0x8000b7 <Time+0x1>
    119e:	80 91 b1 00 	lds	r24, 0x00B1	; 0x8000b1 <i>
    11a2:	89 0f       	add	r24, r25
    11a4:	80 93 b7 00 	sts	0x00B7, r24	; 0x8000b7 <Time+0x1>
		constrain((int8_t*)&Time.Hour,0,23);
    11a8:	47 e1       	ldi	r20, 0x17	; 23
    11aa:	60 e0       	ldi	r22, 0x00	; 0
    11ac:	87 eb       	ldi	r24, 0xB7	; 183
    11ae:	90 e0       	ldi	r25, 0x00	; 0
    11b0:	62 df       	rcall	.-316    	; 0x1076 <constrain>
		RTC_SetValue(RTC_HOUR_ADR, Time.Hour);
    11b2:	60 91 b7 00 	lds	r22, 0x00B7	; 0x8000b7 <Time+0x1>
    11b6:	82 e0       	ldi	r24, 0x02	; 2
    11b8:	3d d3       	rcall	.+1658   	; 0x1834 <RTC_SetValue>
	}
	
	DIVIDING_POINT_ON;//включаем точку
    11ba:	a8 9a       	sbi	0x15, 0	; 21
	
	if (Time.am_pm==0)   //если 24, то моргаем  обе цифры часов
    11bc:	80 91 be 00 	lds	r24, 0x00BE	; 0x8000be <Time+0x8>
    11c0:	81 11       	cpse	r24, r1
    11c2:	06 c0       	rjmp	.+12     	; 0x11d0 <set_hours+0x72>
	{
		Ind[0].blink = Ind[1].blink = 1;         //моргаем часами
    11c4:	81 e0       	ldi	r24, 0x01	; 1
    11c6:	80 93 a3 00 	sts	0x00A3, r24	; 0x8000a3 <Ind+0x4>
    11ca:	80 93 a0 00 	sts	0x00A0, r24	; 0x8000a0 <Ind+0x1>
    11ce:	12 c0       	rjmp	.+36     	; 0x11f4 <set_hours+0x96>
	}
	else                 //если 12, то моргаем в зависимости от АМ и РМ
	{
		if (Time.Hour>11)
    11d0:	80 91 b7 00 	lds	r24, 0x00B7	; 0x8000b7 <Time+0x1>
    11d4:	8c 30       	cpi	r24, 0x0C	; 12
    11d6:	48 f0       	brcs	.+18     	; 0x11ea <set_hours+0x8c>
		{
			Time.Hour -= 12;
    11d8:	8c 50       	subi	r24, 0x0C	; 12
    11da:	80 93 b7 00 	sts	0x00B7, r24	; 0x8000b7 <Time+0x1>
			Ind[0].blink=0;
    11de:	10 92 a0 00 	sts	0x00A0, r1	; 0x8000a0 <Ind+0x1>
			Ind[1].blink=1; // моргает 2 цифра - PM
    11e2:	81 e0       	ldi	r24, 0x01	; 1
    11e4:	80 93 a3 00 	sts	0x00A3, r24	; 0x8000a3 <Ind+0x4>
    11e8:	05 c0       	rjmp	.+10     	; 0x11f4 <set_hours+0x96>
		}
		else
		{
			Ind[0].blink=1;// моргает 1 цифра - АM
    11ea:	81 e0       	ldi	r24, 0x01	; 1
    11ec:	80 93 a0 00 	sts	0x00A0, r24	; 0x8000a0 <Ind+0x1>
			Ind[1].blink=0;
    11f0:	10 92 a3 00 	sts	0x00A3, r1	; 0x8000a3 <Ind+0x4>
		}
	}
	Ind[0].lamp=Time.Hour/10;
    11f4:	80 91 b7 00 	lds	r24, 0x00B7	; 0x8000b7 <Time+0x1>
    11f8:	6a e0       	ldi	r22, 0x0A	; 10
    11fa:	d4 d3       	rcall	.+1960   	; 0x19a4 <__udivmodqi4>
    11fc:	80 93 9f 00 	sts	0x009F, r24	; 0x80009f <Ind>
	Ind[1].lamp=Time.Hour%10;
    1200:	90 93 a2 00 	sts	0x00A2, r25	; 0x8000a2 <Ind+0x3>
	Ind[2].lamp=Time.Min>>4;
    1204:	80 91 b8 00 	lds	r24, 0x00B8	; 0x8000b8 <Time+0x2>
    1208:	98 2f       	mov	r25, r24
    120a:	92 95       	swap	r25
    120c:	9f 70       	andi	r25, 0x0F	; 15
    120e:	90 93 a5 00 	sts	0x00A5, r25	; 0x8000a5 <Ind+0x6>
	Ind[3].lamp=Time.Min&0x0F;
    1212:	8f 70       	andi	r24, 0x0F	; 15
    1214:	80 93 a8 00 	sts	0x00A8, r24	; 0x8000a8 <Ind+0x9>
    1218:	08 95       	ret

0000121a <set_minuts>:
/************************************************************************/
/*                                                                      */
/************************************************************************/
void set_minuts(void)
{
	Time.Min=RTC_get(RTC_MIN_ADR);
    121a:	81 e0       	ldi	r24, 0x01	; 1
    121c:	24 d3       	rcall	.+1608   	; 0x1866 <RTC_get>
	
	Time.Min=((Time.Min>>4)*10)+(Time.Min&0x0F);
    121e:	98 2f       	mov	r25, r24
    1220:	92 95       	swap	r25
    1222:	9f 70       	andi	r25, 0x0F	; 15
    1224:	8f 70       	andi	r24, 0x0F	; 15
    1226:	2a e0       	ldi	r18, 0x0A	; 10
    1228:	92 9f       	mul	r25, r18
    122a:	80 0d       	add	r24, r0
    122c:	11 24       	eor	r1, r1
    122e:	80 93 b8 00 	sts	0x00B8, r24	; 0x8000b8 <Time+0x2>
	
	if (i!=0)
    1232:	80 91 b1 00 	lds	r24, 0x00B1	; 0x8000b1 <i>
    1236:	88 23       	and	r24, r24
    1238:	b1 f0       	breq	.+44     	; 0x1266 <set_minuts+0x4c>
	{
		time_change_flag=1;  //флаг редактирования времени
    123a:	81 e0       	ldi	r24, 0x01	; 1
    123c:	80 93 ae 00 	sts	0x00AE, r24	; 0x8000ae <time_change_flag>
		RTC_SetValue(RTC_SEC_ADR, 0x80);   //останавливаем счет
    1240:	60 e8       	ldi	r22, 0x80	; 128
    1242:	80 e0       	ldi	r24, 0x00	; 0
    1244:	f7 d2       	rcall	.+1518   	; 0x1834 <RTC_SetValue>
		Time.Min+=i;
    1246:	90 91 b8 00 	lds	r25, 0x00B8	; 0x8000b8 <Time+0x2>
    124a:	80 91 b1 00 	lds	r24, 0x00B1	; 0x8000b1 <i>
    124e:	89 0f       	add	r24, r25
    1250:	80 93 b8 00 	sts	0x00B8, r24	; 0x8000b8 <Time+0x2>
		constrain((int8_t*)&Time.Min,0,59);
    1254:	4b e3       	ldi	r20, 0x3B	; 59
    1256:	60 e0       	ldi	r22, 0x00	; 0
    1258:	88 eb       	ldi	r24, 0xB8	; 184
    125a:	90 e0       	ldi	r25, 0x00	; 0
    125c:	0c df       	rcall	.-488    	; 0x1076 <constrain>
		RTC_SetValue(RTC_MIN_ADR, Time.Min);
    125e:	60 91 b8 00 	lds	r22, 0x00B8	; 0x8000b8 <Time+0x2>
    1262:	81 e0       	ldi	r24, 0x01	; 1
    1264:	e7 d2       	rcall	.+1486   	; 0x1834 <RTC_SetValue>
	}
	
	if (Time.am_pm && (Time.Hour>11))	Time.Hour -= 12;//если режим АМ РМ
    1266:	80 91 be 00 	lds	r24, 0x00BE	; 0x8000be <Time+0x8>
    126a:	88 23       	and	r24, r24
    126c:	39 f0       	breq	.+14     	; 0x127c <set_minuts+0x62>
    126e:	80 91 b7 00 	lds	r24, 0x00B7	; 0x8000b7 <Time+0x1>
    1272:	8c 30       	cpi	r24, 0x0C	; 12
    1274:	18 f0       	brcs	.+6      	; 0x127c <set_minuts+0x62>
    1276:	8c 50       	subi	r24, 0x0C	; 12
    1278:	80 93 b7 00 	sts	0x00B7, r24	; 0x8000b7 <Time+0x1>
	
	Ind[0].blink=Ind[1].blink=0;
    127c:	10 92 a3 00 	sts	0x00A3, r1	; 0x8000a3 <Ind+0x4>
    1280:	10 92 a0 00 	sts	0x00A0, r1	; 0x8000a0 <Ind+0x1>
	Ind[2].blink=Ind[3].blink=1; //моргаем минутами
    1284:	81 e0       	ldi	r24, 0x01	; 1
    1286:	80 93 a9 00 	sts	0x00A9, r24	; 0x8000a9 <Ind+0xa>
    128a:	80 93 a6 00 	sts	0x00A6, r24	; 0x8000a6 <Ind+0x7>
	Ind[0].lamp=Time.Hour/10;
    128e:	80 91 b7 00 	lds	r24, 0x00B7	; 0x8000b7 <Time+0x1>
    1292:	2a e0       	ldi	r18, 0x0A	; 10
    1294:	62 2f       	mov	r22, r18
    1296:	86 d3       	rcall	.+1804   	; 0x19a4 <__udivmodqi4>
    1298:	80 93 9f 00 	sts	0x009F, r24	; 0x80009f <Ind>
	Ind[1].lamp=Time.Hour%10;
    129c:	90 93 a2 00 	sts	0x00A2, r25	; 0x8000a2 <Ind+0x3>
	Ind[2].lamp=Time.Min/10;
    12a0:	80 91 b8 00 	lds	r24, 0x00B8	; 0x8000b8 <Time+0x2>
    12a4:	7f d3       	rcall	.+1790   	; 0x19a4 <__udivmodqi4>
    12a6:	80 93 a5 00 	sts	0x00A5, r24	; 0x8000a5 <Ind+0x6>
	Ind[3].lamp=Time.Min%10;
    12aa:	90 93 a8 00 	sts	0x00A8, r25	; 0x8000a8 <Ind+0x9>
    12ae:	08 95       	ret

000012b0 <set_day>:
/************************************************************************/
/*                                                                      */
/************************************************************************/
void set_day(void)
{
	if (time_change_flag)  //если редактировали время в предыдущем пункте
    12b0:	80 91 ae 00 	lds	r24, 0x00AE	; 0x8000ae <time_change_flag>
    12b4:	88 23       	and	r24, r24
    12b6:	29 f0       	breq	.+10     	; 0x12c2 <set_day+0x12>
	{
		//RTC_SetValue(RTC_SQWE_ADR, 0x12);//разрешение мендра с частотой 1Гц  НЕ ОБЯЗАТЕЛЬНАЯ СТРОКА. ГЛЮЧИЛА ОДНА ПЛАТА, ПРИШЛОСЬ ДОБАВИТЬ СТРОКУ
		RTC_SetValue(RTC_SEC_ADR, 00);    //сбрасываем секунды в 0 и запускаем
    12b8:	60 e0       	ldi	r22, 0x00	; 0
    12ba:	80 e0       	ldi	r24, 0x00	; 0
    12bc:	bb d2       	rcall	.+1398   	; 0x1834 <RTC_SetValue>
		time_change_flag=0;
    12be:	10 92 ae 00 	sts	0x00AE, r1	; 0x8000ae <time_change_flag>
	}
	
	Time.Day=RTC_get(RTC_DAY_ADR);
    12c2:	84 e0       	ldi	r24, 0x04	; 4
    12c4:	d0 d2       	rcall	.+1440   	; 0x1866 <RTC_get>
    12c6:	80 93 ba 00 	sts	0x00BA, r24	; 0x8000ba <Time+0x4>
	Time.Month=RTC_get(RTC_MONTH_ADR);
    12ca:	85 e0       	ldi	r24, 0x05	; 5
    12cc:	cc d2       	rcall	.+1432   	; 0x1866 <RTC_get>
    12ce:	80 93 b9 00 	sts	0x00B9, r24	; 0x8000b9 <Time+0x3>
	Time.Day=((Time.Day>>4)*10)+(Time.Day&0x0F);
    12d2:	80 91 ba 00 	lds	r24, 0x00BA	; 0x8000ba <Time+0x4>
    12d6:	98 2f       	mov	r25, r24
    12d8:	92 95       	swap	r25
    12da:	9f 70       	andi	r25, 0x0F	; 15
    12dc:	8f 70       	andi	r24, 0x0F	; 15
    12de:	2a e0       	ldi	r18, 0x0A	; 10
    12e0:	92 9f       	mul	r25, r18
    12e2:	80 0d       	add	r24, r0
    12e4:	11 24       	eor	r1, r1
    12e6:	80 93 ba 00 	sts	0x00BA, r24	; 0x8000ba <Time+0x4>
	
	if (i!=0)
    12ea:	90 91 b1 00 	lds	r25, 0x00B1	; 0x8000b1 <i>
    12ee:	99 23       	and	r25, r25
    12f0:	61 f0       	breq	.+24     	; 0x130a <set_day+0x5a>
	{
		Time.Day+=i;
    12f2:	89 0f       	add	r24, r25
    12f4:	80 93 ba 00 	sts	0x00BA, r24	; 0x8000ba <Time+0x4>
		constrain((int8_t*)&Time.Day,1,31);
    12f8:	4f e1       	ldi	r20, 0x1F	; 31
    12fa:	61 e0       	ldi	r22, 0x01	; 1
    12fc:	8a eb       	ldi	r24, 0xBA	; 186
    12fe:	90 e0       	ldi	r25, 0x00	; 0
    1300:	ba de       	rcall	.-652    	; 0x1076 <constrain>
		RTC_SetValue(RTC_DAY_ADR, Time.Day);
    1302:	60 91 ba 00 	lds	r22, 0x00BA	; 0x8000ba <Time+0x4>
    1306:	84 e0       	ldi	r24, 0x04	; 4
    1308:	95 d2       	rcall	.+1322   	; 0x1834 <RTC_SetValue>
	}
	Ind[0].blink=Ind[1].blink=1;
    130a:	81 e0       	ldi	r24, 0x01	; 1
    130c:	80 93 a3 00 	sts	0x00A3, r24	; 0x8000a3 <Ind+0x4>
    1310:	80 93 a0 00 	sts	0x00A0, r24	; 0x8000a0 <Ind+0x1>
	Ind[2].blink=Ind[3].blink=0;
    1314:	10 92 a9 00 	sts	0x00A9, r1	; 0x8000a9 <Ind+0xa>
    1318:	10 92 a6 00 	sts	0x00A6, r1	; 0x8000a6 <Ind+0x7>
	Ind[0].lamp=Time.Day/10;
    131c:	80 91 ba 00 	lds	r24, 0x00BA	; 0x8000ba <Time+0x4>
    1320:	6a e0       	ldi	r22, 0x0A	; 10
    1322:	40 d3       	rcall	.+1664   	; 0x19a4 <__udivmodqi4>
    1324:	80 93 9f 00 	sts	0x009F, r24	; 0x80009f <Ind>
	Ind[1].lamp=Time.Day%10;
    1328:	90 93 a2 00 	sts	0x00A2, r25	; 0x8000a2 <Ind+0x3>
	Ind[2].lamp=Time.Month>>4;
    132c:	80 91 b9 00 	lds	r24, 0x00B9	; 0x8000b9 <Time+0x3>
    1330:	98 2f       	mov	r25, r24
    1332:	92 95       	swap	r25
    1334:	9f 70       	andi	r25, 0x0F	; 15
    1336:	90 93 a5 00 	sts	0x00A5, r25	; 0x8000a5 <Ind+0x6>
	Ind[3].lamp=Time.Month&0x0f;
    133a:	8f 70       	andi	r24, 0x0F	; 15
    133c:	80 93 a8 00 	sts	0x00A8, r24	; 0x8000a8 <Ind+0x9>
    1340:	08 95       	ret

00001342 <set_month>:
/************************************************************************/
/*                                                                      */
/************************************************************************/
void set_month(void)
{
	Time.Month=RTC_get(RTC_MONTH_ADR);
    1342:	85 e0       	ldi	r24, 0x05	; 5
    1344:	90 d2       	rcall	.+1312   	; 0x1866 <RTC_get>
	Time.Month=((Time.Month>>4)*10)+(Time.Month&0x0F);
    1346:	98 2f       	mov	r25, r24
    1348:	92 95       	swap	r25
    134a:	9f 70       	andi	r25, 0x0F	; 15
    134c:	8f 70       	andi	r24, 0x0F	; 15
    134e:	2a e0       	ldi	r18, 0x0A	; 10
    1350:	92 9f       	mul	r25, r18
    1352:	80 0d       	add	r24, r0
    1354:	11 24       	eor	r1, r1
    1356:	80 93 b9 00 	sts	0x00B9, r24	; 0x8000b9 <Time+0x3>
	
	if (i!=0)
    135a:	90 91 b1 00 	lds	r25, 0x00B1	; 0x8000b1 <i>
    135e:	99 23       	and	r25, r25
    1360:	61 f0       	breq	.+24     	; 0x137a <set_month+0x38>
	{
		Time.Month+=i;
    1362:	89 0f       	add	r24, r25
    1364:	80 93 b9 00 	sts	0x00B9, r24	; 0x8000b9 <Time+0x3>
		constrain((int8_t*)&Time.Month,1,12);
    1368:	4c e0       	ldi	r20, 0x0C	; 12
    136a:	61 e0       	ldi	r22, 0x01	; 1
    136c:	89 eb       	ldi	r24, 0xB9	; 185
    136e:	90 e0       	ldi	r25, 0x00	; 0
    1370:	82 de       	rcall	.-764    	; 0x1076 <constrain>
		RTC_SetValue(RTC_MONTH_ADR, Time.Month);
    1372:	60 91 b9 00 	lds	r22, 0x00B9	; 0x8000b9 <Time+0x3>
    1376:	85 e0       	ldi	r24, 0x05	; 5
    1378:	5d d2       	rcall	.+1210   	; 0x1834 <RTC_SetValue>
	}
	Ind[0].blink=Ind[1].blink=0;
    137a:	10 92 a3 00 	sts	0x00A3, r1	; 0x8000a3 <Ind+0x4>
    137e:	10 92 a0 00 	sts	0x00A0, r1	; 0x8000a0 <Ind+0x1>
	Ind[2].blink=Ind[3].blink=1;
    1382:	81 e0       	ldi	r24, 0x01	; 1
    1384:	80 93 a9 00 	sts	0x00A9, r24	; 0x8000a9 <Ind+0xa>
    1388:	80 93 a6 00 	sts	0x00A6, r24	; 0x8000a6 <Ind+0x7>
	Ind[0].lamp=Time.Day/10;
    138c:	80 91 ba 00 	lds	r24, 0x00BA	; 0x8000ba <Time+0x4>
    1390:	2a e0       	ldi	r18, 0x0A	; 10
    1392:	62 2f       	mov	r22, r18
    1394:	07 d3       	rcall	.+1550   	; 0x19a4 <__udivmodqi4>
    1396:	80 93 9f 00 	sts	0x009F, r24	; 0x80009f <Ind>
	Ind[1].lamp=Time.Day%10;
    139a:	90 93 a2 00 	sts	0x00A2, r25	; 0x8000a2 <Ind+0x3>
	Ind[2].lamp=Time.Month/10;
    139e:	80 91 b9 00 	lds	r24, 0x00B9	; 0x8000b9 <Time+0x3>
    13a2:	00 d3       	rcall	.+1536   	; 0x19a4 <__udivmodqi4>
    13a4:	80 93 a5 00 	sts	0x00A5, r24	; 0x8000a5 <Ind+0x6>
	Ind[3].lamp=Time.Month%10;
    13a8:	90 93 a8 00 	sts	0x00A8, r25	; 0x8000a8 <Ind+0x9>
    13ac:	08 95       	ret

000013ae <set_year>:
/************************************************************************/
/*                                                                      */
/************************************************************************/
void set_year(void)
{
	Time.Year=RTC_get(RTC_YEAR_ADR);
    13ae:	86 e0       	ldi	r24, 0x06	; 6
    13b0:	5a d2       	rcall	.+1204   	; 0x1866 <RTC_get>
	Time.Year=((Time.Year>>4)*10)+(Time.Year&0x0F);
    13b2:	98 2f       	mov	r25, r24
    13b4:	92 95       	swap	r25
    13b6:	9f 70       	andi	r25, 0x0F	; 15
    13b8:	8f 70       	andi	r24, 0x0F	; 15
    13ba:	2a e0       	ldi	r18, 0x0A	; 10
    13bc:	92 9f       	mul	r25, r18
    13be:	80 0d       	add	r24, r0
    13c0:	11 24       	eor	r1, r1
    13c2:	80 93 bb 00 	sts	0x00BB, r24	; 0x8000bb <Time+0x5>
	
	if (i!=0)
    13c6:	90 91 b1 00 	lds	r25, 0x00B1	; 0x8000b1 <i>
    13ca:	99 23       	and	r25, r25
    13cc:	61 f0       	breq	.+24     	; 0x13e6 <set_year+0x38>
	{
		Time.Year+=i;
    13ce:	89 0f       	add	r24, r25
    13d0:	80 93 bb 00 	sts	0x00BB, r24	; 0x8000bb <Time+0x5>
		constrain((int8_t*)&Time.Year,0,99);
    13d4:	43 e6       	ldi	r20, 0x63	; 99
    13d6:	60 e0       	ldi	r22, 0x00	; 0
    13d8:	8b eb       	ldi	r24, 0xBB	; 187
    13da:	90 e0       	ldi	r25, 0x00	; 0
    13dc:	4c de       	rcall	.-872    	; 0x1076 <constrain>
		RTC_SetValue(RTC_YEAR_ADR, Time.Year);
    13de:	60 91 bb 00 	lds	r22, 0x00BB	; 0x8000bb <Time+0x5>
    13e2:	86 e0       	ldi	r24, 0x06	; 6
    13e4:	27 d2       	rcall	.+1102   	; 0x1834 <RTC_SetValue>
	}
	DIVIDING_POINT_OFF; //гасим точку
    13e6:	a8 98       	cbi	0x15, 0	; 21
	Ind[0].lamp=2;
    13e8:	82 e0       	ldi	r24, 0x02	; 2
    13ea:	80 93 9f 00 	sts	0x009F, r24	; 0x80009f <Ind>
	Ind[1].lamp=0;
    13ee:	10 92 a2 00 	sts	0x00A2, r1	; 0x8000a2 <Ind+0x3>
	Ind[2].lamp=Time.Year/10;
    13f2:	80 91 bb 00 	lds	r24, 0x00BB	; 0x8000bb <Time+0x5>
    13f6:	6a e0       	ldi	r22, 0x0A	; 10
    13f8:	d5 d2       	rcall	.+1450   	; 0x19a4 <__udivmodqi4>
    13fa:	80 93 a5 00 	sts	0x00A5, r24	; 0x8000a5 <Ind+0x6>
	Ind[3].lamp=Time.Year%10;
    13fe:	90 93 a8 00 	sts	0x00A8, r25	; 0x8000a8 <Ind+0x9>
    1402:	08 95       	ret

00001404 <show_data_on>:
/************************************************************************/
/*                                                                      */
/************************************************************************/
void show_data_on(void)
{
	if (i != 0)	Time.data_on^=(0x01); //инверсия бита статуса
    1404:	80 91 b1 00 	lds	r24, 0x00B1	; 0x8000b1 <i>
    1408:	88 23       	and	r24, r24
    140a:	31 f0       	breq	.+12     	; 0x1418 <show_data_on+0x14>
    140c:	90 91 bc 00 	lds	r25, 0x00BC	; 0x8000bc <Time+0x6>
    1410:	81 e0       	ldi	r24, 0x01	; 1
    1412:	89 27       	eor	r24, r25
    1414:	80 93 bc 00 	sts	0x00BC, r24	; 0x8000bc <Time+0x6>
	Ind[0].lamp=1;
    1418:	81 e0       	ldi	r24, 0x01	; 1
    141a:	80 93 9f 00 	sts	0x009F, r24	; 0x80009f <Ind>
	Ind[1].lamp=10;
    141e:	8a e0       	ldi	r24, 0x0A	; 10
    1420:	80 93 a2 00 	sts	0x00A2, r24	; 0x8000a2 <Ind+0x3>
	Ind[2].lamp=10;
    1424:	80 93 a5 00 	sts	0x00A5, r24	; 0x8000a5 <Ind+0x6>
	Ind[3].lamp=Time.data_on;
    1428:	80 91 bc 00 	lds	r24, 0x00BC	; 0x8000bc <Time+0x6>
    142c:	80 93 a8 00 	sts	0x00A8, r24	; 0x8000a8 <Ind+0x9>
    1430:	08 95       	ret

00001432 <show_temp_on>:
/************************************************************************/
/*                                                                      */
/************************************************************************/
void show_temp_on(void)
{
	if (i != 0)	Time.temp_on^=(0x01); //инверсия бита статуса
    1432:	80 91 b1 00 	lds	r24, 0x00B1	; 0x8000b1 <i>
    1436:	88 23       	and	r24, r24
    1438:	31 f0       	breq	.+12     	; 0x1446 <show_temp_on+0x14>
    143a:	90 91 bd 00 	lds	r25, 0x00BD	; 0x8000bd <Time+0x7>
    143e:	81 e0       	ldi	r24, 0x01	; 1
    1440:	89 27       	eor	r24, r25
    1442:	80 93 bd 00 	sts	0x00BD, r24	; 0x8000bd <Time+0x7>
	Ind[0].lamp=2;
    1446:	82 e0       	ldi	r24, 0x02	; 2
    1448:	80 93 9f 00 	sts	0x009F, r24	; 0x80009f <Ind>
	Ind[1].lamp=10;
    144c:	8a e0       	ldi	r24, 0x0A	; 10
    144e:	80 93 a2 00 	sts	0x00A2, r24	; 0x8000a2 <Ind+0x3>
	Ind[2].lamp=10;
    1452:	80 93 a5 00 	sts	0x00A5, r24	; 0x8000a5 <Ind+0x6>
	Ind[3].lamp=Time.temp_on;
    1456:	80 91 bd 00 	lds	r24, 0x00BD	; 0x8000bd <Time+0x7>
    145a:	80 93 a8 00 	sts	0x00A8, r24	; 0x8000a8 <Ind+0x9>
    145e:	08 95       	ret

00001460 <correction>:
/************************************************************************/
/*                                                                      */
/************************************************************************/
void correction(void)
{
	if (i!=0)
    1460:	80 91 b1 00 	lds	r24, 0x00B1	; 0x8000b1 <i>
    1464:	88 23       	and	r24, r24
    1466:	51 f0       	breq	.+20     	; 0x147c <correction+0x1c>
	{
		Time.Correct_sec+=i;
    1468:	90 91 bf 00 	lds	r25, 0x00BF	; 0x8000bf <Time+0x9>
    146c:	89 0f       	add	r24, r25
    146e:	80 93 bf 00 	sts	0x00BF, r24	; 0x8000bf <Time+0x9>
		constrain((int8_t*)&Time.Correct_sec,-99,99);
    1472:	43 e6       	ldi	r20, 0x63	; 99
    1474:	6d e9       	ldi	r22, 0x9D	; 157
    1476:	8f eb       	ldi	r24, 0xBF	; 191
    1478:	90 e0       	ldi	r25, 0x00	; 0
    147a:	fd dd       	rcall	.-1030   	; 0x1076 <constrain>
	}
	
	if (Time.Correct_sec<0)	DIVIDING_POINT_ON;
    147c:	20 91 bf 00 	lds	r18, 0x00BF	; 0x8000bf <Time+0x9>
    1480:	27 ff       	sbrs	r18, 7
    1482:	02 c0       	rjmp	.+4      	; 0x1488 <correction+0x28>
    1484:	a8 9a       	sbi	0x15, 0	; 21
    1486:	01 c0       	rjmp	.+2      	; 0x148a <correction+0x2a>
	else	DIVIDING_POINT_OFF;
    1488:	a8 98       	cbi	0x15, 0	; 21
	
	Ind[0].lamp=3;
    148a:	83 e0       	ldi	r24, 0x03	; 3
    148c:	80 93 9f 00 	sts	0x009F, r24	; 0x80009f <Ind>
	Ind[1].lamp=10;
    1490:	6a e0       	ldi	r22, 0x0A	; 10
    1492:	60 93 a2 00 	sts	0x00A2, r22	; 0x8000a2 <Ind+0x3>
	Ind[2].lamp=abs(Time.Correct_sec/10);  //модуль
    1496:	82 2f       	mov	r24, r18
    1498:	91 d2       	rcall	.+1314   	; 0x19bc <__divmodqi4>
    149a:	08 2e       	mov	r0, r24
    149c:	00 0c       	add	r0, r0
    149e:	99 0b       	sbc	r25, r25
    14a0:	97 ff       	sbrs	r25, 7
    14a2:	03 c0       	rjmp	.+6      	; 0x14aa <correction+0x4a>
    14a4:	91 95       	neg	r25
    14a6:	81 95       	neg	r24
    14a8:	91 09       	sbc	r25, r1
    14aa:	80 93 a5 00 	sts	0x00A5, r24	; 0x8000a5 <Ind+0x6>
	Ind[3].lamp=abs(Time.Correct_sec%10);  //модуль
    14ae:	82 2f       	mov	r24, r18
    14b0:	6a e0       	ldi	r22, 0x0A	; 10
    14b2:	84 d2       	rcall	.+1288   	; 0x19bc <__divmodqi4>
    14b4:	89 2f       	mov	r24, r25
    14b6:	99 0f       	add	r25, r25
    14b8:	99 0b       	sbc	r25, r25
    14ba:	97 ff       	sbrs	r25, 7
    14bc:	03 c0       	rjmp	.+6      	; 0x14c4 <correction+0x64>
    14be:	91 95       	neg	r25
    14c0:	81 95       	neg	r24
    14c2:	91 09       	sbc	r25, r1
    14c4:	80 93 a8 00 	sts	0x00A8, r24	; 0x8000a8 <Ind+0x9>
    14c8:	08 95       	ret

000014ca <number_al>:
/************************************************************************/
/*		  	   Далее ряд фукций по настройке будильников                */
/************************************************************************/
void number_al(void)
{
	DIVIDING_POINT_ON;
    14ca:	a8 9a       	sbi	0x15, 0	; 21
	Status = STATUS_SETTINGS;
    14cc:	83 e0       	ldi	r24, 0x03	; 3
    14ce:	80 93 b0 00 	sts	0x00B0, r24	; 0x8000b0 <Status>
	selectable_alarm_point = 1;  //показываем точку выбранного будильника. флаг который используется в обработчике таймера индикации
    14d2:	81 e0       	ldi	r24, 0x01	; 1
    14d4:	80 93 af 00 	sts	0x00AF, r24	; 0x8000af <selectable_alarm_point>
	if (i!=0)
    14d8:	80 91 b1 00 	lds	r24, 0x00B1	; 0x8000b1 <i>
    14dc:	88 23       	and	r24, r24
    14de:	51 f0       	breq	.+20     	; 0x14f4 <number_al+0x2a>
	{
		alarm_number+=i;
    14e0:	90 91 ab 00 	lds	r25, 0x00AB	; 0x8000ab <alarm_number>
    14e4:	89 0f       	add	r24, r25
    14e6:	80 93 ab 00 	sts	0x00AB, r24	; 0x8000ab <alarm_number>
		constrain((int8_t*)&alarm_number,0,3);
    14ea:	43 e0       	ldi	r20, 0x03	; 3
    14ec:	60 e0       	ldi	r22, 0x00	; 0
    14ee:	8b ea       	ldi	r24, 0xAB	; 171
    14f0:	90 e0       	ldi	r25, 0x00	; 0
    14f2:	c1 dd       	rcall	.-1150   	; 0x1076 <constrain>
	}
	if ((Time.am_pm)&&(Alarm[alarm_number].Al_hour>11))  //если 24, то меняем на 12
    14f4:	80 91 be 00 	lds	r24, 0x00BE	; 0x8000be <Time+0x8>
    14f8:	20 91 ab 00 	lds	r18, 0x00AB	; 0x8000ab <alarm_number>
    14fc:	88 23       	and	r24, r24
    14fe:	b9 f0       	breq	.+46     	; 0x152e <number_al+0x64>
    1500:	82 2f       	mov	r24, r18
    1502:	90 e0       	ldi	r25, 0x00	; 0
    1504:	fc 01       	movw	r30, r24
    1506:	ee 0f       	add	r30, r30
    1508:	ff 1f       	adc	r31, r31
    150a:	8e 0f       	add	r24, r30
    150c:	9f 1f       	adc	r25, r31
    150e:	fc 01       	movw	r30, r24
    1510:	ed 56       	subi	r30, 0x6D	; 109
    1512:	ff 4f       	sbci	r31, 0xFF	; 255
    1514:	80 81       	ld	r24, Z
    1516:	8c 30       	cpi	r24, 0x0C	; 12
    1518:	50 f0       	brcs	.+20     	; 0x152e <number_al+0x64>
	{
		Ind[0].lamp=(Alarm[alarm_number].Al_hour-12)/10;
    151a:	90 e0       	ldi	r25, 0x00	; 0
    151c:	0c 97       	sbiw	r24, 0x0c	; 12
    151e:	6a e0       	ldi	r22, 0x0A	; 10
    1520:	70 e0       	ldi	r23, 0x00	; 0
    1522:	6d d2       	rcall	.+1242   	; 0x19fe <__divmodhi4>
    1524:	60 93 9f 00 	sts	0x009F, r22	; 0x80009f <Ind>
		Ind[1].lamp=(Alarm[alarm_number].Al_hour-12)%10;
    1528:	80 93 a2 00 	sts	0x00A2, r24	; 0x8000a2 <Ind+0x3>
    152c:	11 c0       	rjmp	.+34     	; 0x1550 <number_al+0x86>
	}
	else
	{
		Ind[0].lamp=Alarm[alarm_number].Al_hour/10;
    152e:	82 2f       	mov	r24, r18
    1530:	90 e0       	ldi	r25, 0x00	; 0
    1532:	fc 01       	movw	r30, r24
    1534:	ee 0f       	add	r30, r30
    1536:	ff 1f       	adc	r31, r31
    1538:	8e 0f       	add	r24, r30
    153a:	9f 1f       	adc	r25, r31
    153c:	fc 01       	movw	r30, r24
    153e:	ed 56       	subi	r30, 0x6D	; 109
    1540:	ff 4f       	sbci	r31, 0xFF	; 255
    1542:	80 81       	ld	r24, Z
    1544:	6a e0       	ldi	r22, 0x0A	; 10
    1546:	2e d2       	rcall	.+1116   	; 0x19a4 <__udivmodqi4>
    1548:	80 93 9f 00 	sts	0x009F, r24	; 0x80009f <Ind>
		Ind[1].lamp=Alarm[alarm_number].Al_hour%10;
    154c:	90 93 a2 00 	sts	0x00A2, r25	; 0x8000a2 <Ind+0x3>
	}
	
	Ind[2].lamp=Alarm[alarm_number].Al_min/10;
    1550:	82 2f       	mov	r24, r18
    1552:	90 e0       	ldi	r25, 0x00	; 0
    1554:	fc 01       	movw	r30, r24
    1556:	ee 0f       	add	r30, r30
    1558:	ff 1f       	adc	r31, r31
    155a:	8e 0f       	add	r24, r30
    155c:	9f 1f       	adc	r25, r31
    155e:	fc 01       	movw	r30, r24
    1560:	ed 56       	subi	r30, 0x6D	; 109
    1562:	ff 4f       	sbci	r31, 0xFF	; 255
    1564:	81 81       	ldd	r24, Z+1	; 0x01
    1566:	6a e0       	ldi	r22, 0x0A	; 10
    1568:	1d d2       	rcall	.+1082   	; 0x19a4 <__udivmodqi4>
    156a:	80 93 a5 00 	sts	0x00A5, r24	; 0x8000a5 <Ind+0x6>
	Ind[3].lamp=Alarm[alarm_number].Al_min%10;
    156e:	90 93 a8 00 	sts	0x00A8, r25	; 0x8000a8 <Ind+0x9>
    1572:	08 95       	ret

00001574 <activ_alarm>:
/************************************************************************/
/*			  Включение/выключение выбранного будильника                */
/************************************************************************/
void activ_alarm(void)
{
	DIVIDING_POINT_OFF;
    1574:	a8 98       	cbi	0x15, 0	; 21
	Status = STATUS_ALARM;
    1576:	82 e0       	ldi	r24, 0x02	; 2
    1578:	80 93 b0 00 	sts	0x00B0, r24	; 0x8000b0 <Status>
	selectable_alarm_point = 0;
    157c:	10 92 af 00 	sts	0x00AF, r1	; 0x8000af <selectable_alarm_point>
	if (i!=0)
    1580:	90 91 b1 00 	lds	r25, 0x00B1	; 0x8000b1 <i>
    1584:	80 91 ab 00 	lds	r24, 0x00AB	; 0x8000ab <alarm_number>
    1588:	99 23       	and	r25, r25
    158a:	69 f0       	breq	.+26     	; 0x15a6 <activ_alarm+0x32>
	{
		Alarm[alarm_number].Al_status^=(0x01); //инверсия бита статуса
    158c:	e8 2f       	mov	r30, r24
    158e:	f0 e0       	ldi	r31, 0x00	; 0
    1590:	9f 01       	movw	r18, r30
    1592:	22 0f       	add	r18, r18
    1594:	33 1f       	adc	r19, r19
    1596:	e2 0f       	add	r30, r18
    1598:	f3 1f       	adc	r31, r19
    159a:	ed 56       	subi	r30, 0x6D	; 109
    159c:	ff 4f       	sbci	r31, 0xFF	; 255
    159e:	22 81       	ldd	r18, Z+2	; 0x02
    15a0:	91 e0       	ldi	r25, 0x01	; 1
    15a2:	92 27       	eor	r25, r18
    15a4:	92 83       	std	Z+2, r25	; 0x02
	}
	Ind[0].lamp=10;
    15a6:	9a e0       	ldi	r25, 0x0A	; 10
    15a8:	90 93 9f 00 	sts	0x009F, r25	; 0x80009f <Ind>
	Ind[1].lamp=10;
    15ac:	90 93 a2 00 	sts	0x00A2, r25	; 0x8000a2 <Ind+0x3>
	Ind[2].lamp=10;
    15b0:	90 93 a5 00 	sts	0x00A5, r25	; 0x8000a5 <Ind+0x6>
	Ind[3].lamp=Alarm[alarm_number].Al_status;
    15b4:	90 e0       	ldi	r25, 0x00	; 0
    15b6:	fc 01       	movw	r30, r24
    15b8:	ee 0f       	add	r30, r30
    15ba:	ff 1f       	adc	r31, r31
    15bc:	8e 0f       	add	r24, r30
    15be:	9f 1f       	adc	r25, r31
    15c0:	fc 01       	movw	r30, r24
    15c2:	ed 56       	subi	r30, 0x6D	; 109
    15c4:	ff 4f       	sbci	r31, 0xFF	; 255
    15c6:	82 81       	ldd	r24, Z+2	; 0x02
    15c8:	80 93 a8 00 	sts	0x00A8, r24	; 0x8000a8 <Ind+0x9>
    15cc:	08 95       	ret

000015ce <hour_alarm>:
/************************************************************************/
/*				       Установка часов будильника                       */
/************************************************************************/
void hour_alarm(void)
{
	DIVIDING_POINT_ON;
    15ce:	a8 9a       	sbi	0x15, 0	; 21
	Status = STATUS_SETTINGS;
    15d0:	83 e0       	ldi	r24, 0x03	; 3
    15d2:	80 93 b0 00 	sts	0x00B0, r24	; 0x8000b0 <Status>
	if (i!=0)
    15d6:	20 91 b1 00 	lds	r18, 0x00B1	; 0x8000b1 <i>
    15da:	22 23       	and	r18, r18
    15dc:	89 f0       	breq	.+34     	; 0x1600 <hour_alarm+0x32>
	{
		Alarm[alarm_number].Al_hour+=i;
    15de:	80 91 ab 00 	lds	r24, 0x00AB	; 0x8000ab <alarm_number>
    15e2:	90 e0       	ldi	r25, 0x00	; 0
    15e4:	ac 01       	movw	r20, r24
    15e6:	44 0f       	add	r20, r20
    15e8:	55 1f       	adc	r21, r21
    15ea:	84 0f       	add	r24, r20
    15ec:	95 1f       	adc	r25, r21
    15ee:	8d 56       	subi	r24, 0x6D	; 109
    15f0:	9f 4f       	sbci	r25, 0xFF	; 255
    15f2:	fc 01       	movw	r30, r24
    15f4:	30 81       	ld	r19, Z
    15f6:	23 0f       	add	r18, r19
    15f8:	20 83       	st	Z, r18
		constrain((int8_t*)&Alarm[alarm_number].Al_hour,0,23);
    15fa:	47 e1       	ldi	r20, 0x17	; 23
    15fc:	60 e0       	ldi	r22, 0x00	; 0
    15fe:	3b dd       	rcall	.-1418   	; 0x1076 <constrain>
	}
	//проверка на АМ РМ
	if (Time.am_pm==0)   //если 24, то моргаем  обе цифры часов
    1600:	80 91 be 00 	lds	r24, 0x00BE	; 0x8000be <Time+0x8>
    1604:	20 91 ab 00 	lds	r18, 0x00AB	; 0x8000ab <alarm_number>
    1608:	81 11       	cpse	r24, r1
    160a:	11 c0       	rjmp	.+34     	; 0x162e <hour_alarm+0x60>
	{
		Ind[0].blink=Ind[1].blink=1;         //моргаем часами
    160c:	81 e0       	ldi	r24, 0x01	; 1
    160e:	80 93 a3 00 	sts	0x00A3, r24	; 0x8000a3 <Ind+0x4>
    1612:	80 93 a0 00 	sts	0x00A0, r24	; 0x8000a0 <Ind+0x1>
		Ind[0].lamp=Alarm[alarm_number].Al_hour/10;
    1616:	82 2f       	mov	r24, r18
    1618:	90 e0       	ldi	r25, 0x00	; 0
    161a:	fc 01       	movw	r30, r24
    161c:	ee 0f       	add	r30, r30
    161e:	ff 1f       	adc	r31, r31
    1620:	8e 0f       	add	r24, r30
    1622:	9f 1f       	adc	r25, r31
    1624:	fc 01       	movw	r30, r24
    1626:	ed 56       	subi	r30, 0x6D	; 109
    1628:	ff 4f       	sbci	r31, 0xFF	; 255
    162a:	80 81       	ld	r24, Z
    162c:	21 c0       	rjmp	.+66     	; 0x1670 <hour_alarm+0xa2>
		Ind[1].lamp=Alarm[alarm_number].Al_hour%10;
	}
	else                 //если 12, то моргаем в зависимости от АМ и РМ
	{
		if (Alarm[alarm_number].Al_hour>11)
    162e:	82 2f       	mov	r24, r18
    1630:	90 e0       	ldi	r25, 0x00	; 0
    1632:	fc 01       	movw	r30, r24
    1634:	ee 0f       	add	r30, r30
    1636:	ff 1f       	adc	r31, r31
    1638:	8e 0f       	add	r24, r30
    163a:	9f 1f       	adc	r25, r31
    163c:	fc 01       	movw	r30, r24
    163e:	ed 56       	subi	r30, 0x6D	; 109
    1640:	ff 4f       	sbci	r31, 0xFF	; 255
    1642:	80 81       	ld	r24, Z
    1644:	8c 30       	cpi	r24, 0x0C	; 12
    1646:	78 f0       	brcs	.+30     	; 0x1666 <hour_alarm+0x98>
		{
			Ind[0].blink=0;
    1648:	10 92 a0 00 	sts	0x00A0, r1	; 0x8000a0 <Ind+0x1>
			Ind[1].blink=1; // моргает 2 цифра - PM
    164c:	91 e0       	ldi	r25, 0x01	; 1
    164e:	90 93 a3 00 	sts	0x00A3, r25	; 0x8000a3 <Ind+0x4>
			Ind[0].lamp=(Alarm[alarm_number].Al_hour-12)/10;
    1652:	90 e0       	ldi	r25, 0x00	; 0
    1654:	0c 97       	sbiw	r24, 0x0c	; 12
    1656:	6a e0       	ldi	r22, 0x0A	; 10
    1658:	70 e0       	ldi	r23, 0x00	; 0
    165a:	d1 d1       	rcall	.+930    	; 0x19fe <__divmodhi4>
    165c:	60 93 9f 00 	sts	0x009F, r22	; 0x80009f <Ind>
			Ind[1].lamp=(Alarm[alarm_number].Al_hour-12)%10;
    1660:	80 93 a2 00 	sts	0x00A2, r24	; 0x8000a2 <Ind+0x3>
    1664:	0b c0       	rjmp	.+22     	; 0x167c <hour_alarm+0xae>
		}
		else
		{
			Ind[0].blink=1;
    1666:	91 e0       	ldi	r25, 0x01	; 1
    1668:	90 93 a0 00 	sts	0x00A0, r25	; 0x8000a0 <Ind+0x1>
			Ind[1].blink=0; // моргает 1 цифра - АM
    166c:	10 92 a3 00 	sts	0x00A3, r1	; 0x8000a3 <Ind+0x4>
			Ind[0].lamp=Alarm[alarm_number].Al_hour/10;
    1670:	6a e0       	ldi	r22, 0x0A	; 10
    1672:	98 d1       	rcall	.+816    	; 0x19a4 <__udivmodqi4>
    1674:	80 93 9f 00 	sts	0x009F, r24	; 0x80009f <Ind>
			Ind[1].lamp=Alarm[alarm_number].Al_hour%10;
    1678:	90 93 a2 00 	sts	0x00A2, r25	; 0x8000a2 <Ind+0x3>
		}
	}
	Ind[2].lamp=Alarm[alarm_number].Al_min/10;
    167c:	82 2f       	mov	r24, r18
    167e:	90 e0       	ldi	r25, 0x00	; 0
    1680:	fc 01       	movw	r30, r24
    1682:	ee 0f       	add	r30, r30
    1684:	ff 1f       	adc	r31, r31
    1686:	8e 0f       	add	r24, r30
    1688:	9f 1f       	adc	r25, r31
    168a:	fc 01       	movw	r30, r24
    168c:	ed 56       	subi	r30, 0x6D	; 109
    168e:	ff 4f       	sbci	r31, 0xFF	; 255
    1690:	81 81       	ldd	r24, Z+1	; 0x01
    1692:	6a e0       	ldi	r22, 0x0A	; 10
    1694:	87 d1       	rcall	.+782    	; 0x19a4 <__udivmodqi4>
    1696:	80 93 a5 00 	sts	0x00A5, r24	; 0x8000a5 <Ind+0x6>
	Ind[3].lamp=Alarm[alarm_number].Al_min%10;
    169a:	90 93 a8 00 	sts	0x00A8, r25	; 0x8000a8 <Ind+0x9>
    169e:	08 95       	ret

000016a0 <min_alarm>:
/************************************************************************/
/*				     Установка минут будильника                         */
/************************************************************************/
void min_alarm(void)
{
	if (i!=0)
    16a0:	20 91 b1 00 	lds	r18, 0x00B1	; 0x8000b1 <i>
    16a4:	22 23       	and	r18, r18
    16a6:	99 f0       	breq	.+38     	; 0x16ce <min_alarm+0x2e>
	{
		Alarm[alarm_number].Al_min+=i;
    16a8:	80 91 ab 00 	lds	r24, 0x00AB	; 0x8000ab <alarm_number>
    16ac:	90 e0       	ldi	r25, 0x00	; 0
    16ae:	ac 01       	movw	r20, r24
    16b0:	44 0f       	add	r20, r20
    16b2:	55 1f       	adc	r21, r21
    16b4:	84 0f       	add	r24, r20
    16b6:	95 1f       	adc	r25, r21
    16b8:	fc 01       	movw	r30, r24
    16ba:	ed 56       	subi	r30, 0x6D	; 109
    16bc:	ff 4f       	sbci	r31, 0xFF	; 255
    16be:	31 81       	ldd	r19, Z+1	; 0x01
    16c0:	23 0f       	add	r18, r19
    16c2:	21 83       	std	Z+1, r18	; 0x01
		constrain((int8_t*)&Alarm[alarm_number].Al_min,0,59);
    16c4:	4b e3       	ldi	r20, 0x3B	; 59
    16c6:	60 e0       	ldi	r22, 0x00	; 0
    16c8:	8c 56       	subi	r24, 0x6C	; 108
    16ca:	9f 4f       	sbci	r25, 0xFF	; 255
    16cc:	d4 dc       	rcall	.-1624   	; 0x1076 <constrain>
	}
	Ind[0].blink=Ind[1].blink=0;
    16ce:	10 92 a3 00 	sts	0x00A3, r1	; 0x8000a3 <Ind+0x4>
    16d2:	10 92 a0 00 	sts	0x00A0, r1	; 0x8000a0 <Ind+0x1>
	Ind[2].blink=Ind[3].blink=1;
    16d6:	81 e0       	ldi	r24, 0x01	; 1
    16d8:	80 93 a9 00 	sts	0x00A9, r24	; 0x8000a9 <Ind+0xa>
    16dc:	80 93 a6 00 	sts	0x00A6, r24	; 0x8000a6 <Ind+0x7>
	if ((Time.am_pm)&&(Alarm[alarm_number].Al_hour>11))  //если 24, то меняем на 12
    16e0:	80 91 be 00 	lds	r24, 0x00BE	; 0x8000be <Time+0x8>
    16e4:	20 91 ab 00 	lds	r18, 0x00AB	; 0x8000ab <alarm_number>
    16e8:	88 23       	and	r24, r24
    16ea:	b9 f0       	breq	.+46     	; 0x171a <min_alarm+0x7a>
    16ec:	82 2f       	mov	r24, r18
    16ee:	90 e0       	ldi	r25, 0x00	; 0
    16f0:	fc 01       	movw	r30, r24
    16f2:	ee 0f       	add	r30, r30
    16f4:	ff 1f       	adc	r31, r31
    16f6:	8e 0f       	add	r24, r30
    16f8:	9f 1f       	adc	r25, r31
    16fa:	fc 01       	movw	r30, r24
    16fc:	ed 56       	subi	r30, 0x6D	; 109
    16fe:	ff 4f       	sbci	r31, 0xFF	; 255
    1700:	80 81       	ld	r24, Z
    1702:	8c 30       	cpi	r24, 0x0C	; 12
    1704:	50 f0       	brcs	.+20     	; 0x171a <min_alarm+0x7a>
	{
		Ind[0].lamp=(Alarm[alarm_number].Al_hour-12)/10;
    1706:	90 e0       	ldi	r25, 0x00	; 0
    1708:	0c 97       	sbiw	r24, 0x0c	; 12
    170a:	6a e0       	ldi	r22, 0x0A	; 10
    170c:	70 e0       	ldi	r23, 0x00	; 0
    170e:	77 d1       	rcall	.+750    	; 0x19fe <__divmodhi4>
    1710:	60 93 9f 00 	sts	0x009F, r22	; 0x80009f <Ind>
		Ind[1].lamp=(Alarm[alarm_number].Al_hour-12)%10;
    1714:	80 93 a2 00 	sts	0x00A2, r24	; 0x8000a2 <Ind+0x3>
    1718:	11 c0       	rjmp	.+34     	; 0x173c <min_alarm+0x9c>
	}
	else
	{
		Ind[0].lamp=Alarm[alarm_number].Al_hour/10;
    171a:	82 2f       	mov	r24, r18
    171c:	90 e0       	ldi	r25, 0x00	; 0
    171e:	fc 01       	movw	r30, r24
    1720:	ee 0f       	add	r30, r30
    1722:	ff 1f       	adc	r31, r31
    1724:	8e 0f       	add	r24, r30
    1726:	9f 1f       	adc	r25, r31
    1728:	fc 01       	movw	r30, r24
    172a:	ed 56       	subi	r30, 0x6D	; 109
    172c:	ff 4f       	sbci	r31, 0xFF	; 255
    172e:	80 81       	ld	r24, Z
    1730:	6a e0       	ldi	r22, 0x0A	; 10
    1732:	38 d1       	rcall	.+624    	; 0x19a4 <__udivmodqi4>
    1734:	80 93 9f 00 	sts	0x009F, r24	; 0x80009f <Ind>
		Ind[1].lamp=Alarm[alarm_number].Al_hour%10;
    1738:	90 93 a2 00 	sts	0x00A2, r25	; 0x8000a2 <Ind+0x3>
	}
	Ind[2].lamp=Alarm[alarm_number].Al_min/10;
    173c:	82 2f       	mov	r24, r18
    173e:	90 e0       	ldi	r25, 0x00	; 0
    1740:	fc 01       	movw	r30, r24
    1742:	ee 0f       	add	r30, r30
    1744:	ff 1f       	adc	r31, r31
    1746:	8e 0f       	add	r24, r30
    1748:	9f 1f       	adc	r25, r31
    174a:	fc 01       	movw	r30, r24
    174c:	ed 56       	subi	r30, 0x6D	; 109
    174e:	ff 4f       	sbci	r31, 0xFF	; 255
    1750:	81 81       	ldd	r24, Z+1	; 0x01
    1752:	6a e0       	ldi	r22, 0x0A	; 10
    1754:	27 d1       	rcall	.+590    	; 0x19a4 <__udivmodqi4>
    1756:	80 93 a5 00 	sts	0x00A5, r24	; 0x8000a5 <Ind+0x6>
	Ind[3].lamp=Alarm[alarm_number].Al_min%10;
    175a:	90 93 a8 00 	sts	0x00A8, r25	; 0x8000a8 <Ind+0x9>
    175e:	08 95       	ret

00001760 <mode_led>:
/************************************************************************/
/*						Выбор режима подсветки                          */
/************************************************************************/
void mode_led(void)  //режимы подсветки. 1-без одсветки, 2-однородная, 3-смешанная
{
	Status = STATUS_LED;
    1760:	81 e0       	ldi	r24, 0x01	; 1
    1762:	80 93 b0 00 	sts	0x00B0, r24	; 0x8000b0 <Status>
	no_points_global = 1;  //убрать точки с будильников
    1766:	80 93 c0 00 	sts	0x00C0, r24	; 0x8000c0 <no_points_global>
	DIVIDING_POINT_OFF;
    176a:	a8 98       	cbi	0x15, 0	; 21
	if (i|=0)
    176c:	80 91 b1 00 	lds	r24, 0x00B1	; 0x8000b1 <i>
    1770:	88 23       	and	r24, r24
    1772:	b1 f0       	breq	.+44     	; 0x17a0 <mode_led+0x40>
	{
 		if ((LED.mode != 1)&&(flag_start_led == 0))	led_color_run();	//если цвет был остановлен, то запустить
    1774:	80 91 b3 00 	lds	r24, 0x00B3	; 0x8000b3 <LED>
    1778:	81 30       	cpi	r24, 0x01	; 1
    177a:	29 f0       	breq	.+10     	; 0x1786 <mode_led+0x26>
    177c:	80 91 b2 00 	lds	r24, 0x00B2	; 0x8000b2 <flag_start_led>
    1780:	81 11       	cpse	r24, r1
    1782:	01 c0       	rjmp	.+2      	; 0x1786 <mode_led+0x26>
    1784:	18 d9       	rcall	.-3536   	; 0x9b6 <led_color_run>
		LED.mode+=i;
    1786:	90 91 b3 00 	lds	r25, 0x00B3	; 0x8000b3 <LED>
    178a:	80 91 b1 00 	lds	r24, 0x00B1	; 0x8000b1 <i>
    178e:	89 0f       	add	r24, r25
    1790:	80 93 b3 00 	sts	0x00B3, r24	; 0x8000b3 <LED>
		constrain((int8_t*)&LED.mode,1,3);
    1794:	43 e0       	ldi	r20, 0x03	; 3
    1796:	61 e0       	ldi	r22, 0x01	; 1
    1798:	83 eb       	ldi	r24, 0xB3	; 179
    179a:	90 e0       	ldi	r25, 0x00	; 0
    179c:	6c dc       	rcall	.-1832   	; 0x1076 <constrain>
		led_config();	//сконфигурировать настройки
    179e:	c4 d8       	rcall	.-3704   	; 0x928 <led_config>
	}
	Ind[3].blink=1;
    17a0:	81 e0       	ldi	r24, 0x01	; 1
    17a2:	80 93 a9 00 	sts	0x00A9, r24	; 0x8000a9 <Ind+0xa>
	Ind[0].lamp=1;
    17a6:	80 93 9f 00 	sts	0x009F, r24	; 0x80009f <Ind>
	Ind[1].lamp=10;
    17aa:	8a e0       	ldi	r24, 0x0A	; 10
    17ac:	80 93 a2 00 	sts	0x00A2, r24	; 0x8000a2 <Ind+0x3>
	Ind[2].lamp=10;
    17b0:	80 93 a5 00 	sts	0x00A5, r24	; 0x8000a5 <Ind+0x6>
	Ind[3].lamp=LED.mode;
    17b4:	80 91 b3 00 	lds	r24, 0x00B3	; 0x8000b3 <LED>
    17b8:	80 93 a8 00 	sts	0x00A8, r24	; 0x8000a8 <Ind+0x9>
    17bc:	08 95       	ret

000017be <speed_led>:
/************************************************************************/
/*				Настрока частоты обновления цвета                       */
/************************************************************************/
void speed_led(void)  //период полной смены цветов
{
	Status = STATUS_SETTINGS;
    17be:	83 e0       	ldi	r24, 0x03	; 3
    17c0:	80 93 b0 00 	sts	0x00B0, r24	; 0x8000b0 <Status>
	if (i|=0)
    17c4:	80 91 b1 00 	lds	r24, 0x00B1	; 0x8000b1 <i>
    17c8:	88 23       	and	r24, r24
    17ca:	59 f0       	breq	.+22     	; 0x17e2 <speed_led+0x24>
	{
		LED.speed+=i;
    17cc:	90 91 b4 00 	lds	r25, 0x00B4	; 0x8000b4 <LED+0x1>
    17d0:	89 0f       	add	r24, r25
    17d2:	80 93 b4 00 	sts	0x00B4, r24	; 0x8000b4 <LED+0x1>
		constrain((int8_t*)&LED.speed,1,4);
    17d6:	44 e0       	ldi	r20, 0x04	; 4
    17d8:	61 e0       	ldi	r22, 0x01	; 1
    17da:	84 eb       	ldi	r24, 0xB4	; 180
    17dc:	90 e0       	ldi	r25, 0x00	; 0
    17de:	4b dc       	rcall	.-1898   	; 0x1076 <constrain>
		led_config();	//сконфигурировать настройки
    17e0:	a3 d8       	rcall	.-3770   	; 0x928 <led_config>
	}
	Ind[0].lamp=2;
    17e2:	82 e0       	ldi	r24, 0x02	; 2
    17e4:	80 93 9f 00 	sts	0x009F, r24	; 0x80009f <Ind>
	Ind[1].lamp=10;
    17e8:	8a e0       	ldi	r24, 0x0A	; 10
    17ea:	80 93 a2 00 	sts	0x00A2, r24	; 0x8000a2 <Ind+0x3>
	Ind[2].lamp=10;
    17ee:	80 93 a5 00 	sts	0x00A5, r24	; 0x8000a5 <Ind+0x6>
	Ind[3].lamp=LED.speed;	
    17f2:	80 91 b4 00 	lds	r24, 0x00B4	; 0x8000b4 <LED+0x1>
    17f6:	80 93 a8 00 	sts	0x00A8, r24	; 0x8000a8 <Ind+0x9>
    17fa:	08 95       	ret

000017fc <bright_led>:
/************************************************************************/
/*					Настройка яркости подсветки                         */
/************************************************************************/
void bright_led(void)
{
	if (i|=0)
    17fc:	80 91 b1 00 	lds	r24, 0x00B1	; 0x8000b1 <i>
    1800:	88 23       	and	r24, r24
    1802:	59 f0       	breq	.+22     	; 0x181a <bright_led+0x1e>
	{
		LED.bright+=i;
    1804:	90 91 b5 00 	lds	r25, 0x00B5	; 0x8000b5 <LED+0x2>
    1808:	89 0f       	add	r24, r25
    180a:	80 93 b5 00 	sts	0x00B5, r24	; 0x8000b5 <LED+0x2>
		constrain((int8_t*)&LED.bright,1,4);
    180e:	44 e0       	ldi	r20, 0x04	; 4
    1810:	61 e0       	ldi	r22, 0x01	; 1
    1812:	85 eb       	ldi	r24, 0xB5	; 181
    1814:	90 e0       	ldi	r25, 0x00	; 0
    1816:	2f dc       	rcall	.-1954   	; 0x1076 <constrain>
		led_config();	//сконфигурировать настройки
    1818:	87 d8       	rcall	.-3826   	; 0x928 <led_config>
	}
	Ind[0].lamp=3;
    181a:	83 e0       	ldi	r24, 0x03	; 3
    181c:	80 93 9f 00 	sts	0x009F, r24	; 0x80009f <Ind>
	Ind[1].lamp=10;
    1820:	8a e0       	ldi	r24, 0x0A	; 10
    1822:	80 93 a2 00 	sts	0x00A2, r24	; 0x8000a2 <Ind+0x3>
	Ind[2].lamp=10;
    1826:	80 93 a5 00 	sts	0x00A5, r24	; 0x8000a5 <Ind+0x6>
	Ind[3].lamp=LED.bright;	
    182a:	80 91 b5 00 	lds	r24, 0x00B5	; 0x8000b5 <LED+0x2>
    182e:	80 93 a8 00 	sts	0x00A8, r24	; 0x8000a8 <Ind+0x9>
    1832:	08 95       	ret

00001834 <RTC_SetValue>:
}
/************************************************************************/
/*            ЗАПИСЬ БАЙТА ДАННЫХ ПО УКАЗАННОМУ АДРЕСУ                  */
/************************************************************************/
void RTC_SetValue(uint8_t adr, uint8_t data)
{
    1834:	cf 93       	push	r28
    1836:	df 93       	push	r29
    1838:	d8 2f       	mov	r29, r24
    183a:	c6 2f       	mov	r28, r22
	/*формируем состояние СТАРТ*/
	i2c_start_cond();
    183c:	70 d0       	rcall	.+224    	; 0x191e <i2c_start_cond>
	/*выдаемна шину пакет SLA-W*/
	i2c_send_byte(DS1307_ADR_W);
    183e:	80 ed       	ldi	r24, 0xD0	; 208
    1840:	74 d0       	rcall	.+232    	; 0x192a <i2c_send_byte>
	/*передаем адрес регистра ds1307*/
	i2c_send_byte(adr);
    1842:	8d 2f       	mov	r24, r29
    1844:	72 d0       	rcall	.+228    	; 0x192a <i2c_send_byte>
	/*передаем данные или пропускаем*/
	if (data != RTC_SET_POINTER)
    1846:	cf 3f       	cpi	r28, 0xFF	; 255
    1848:	59 f0       	breq	.+22     	; 0x1860 <RTC_SetValue+0x2c>
	{
		/*это чтобы привести данные к BCD формату*/
		data = ((data/10)<<4) + data%10;
		i2c_send_byte(data);
    184a:	8c 2f       	mov	r24, r28
    184c:	6a e0       	ldi	r22, 0x0A	; 10
    184e:	aa d0       	rcall	.+340    	; 0x19a4 <__udivmodqi4>
    1850:	20 e1       	ldi	r18, 0x10	; 16
    1852:	82 9f       	mul	r24, r18
    1854:	90 0d       	add	r25, r0
    1856:	11 24       	eor	r1, r1
    1858:	89 2f       	mov	r24, r25
	}
}
    185a:	df 91       	pop	r29
    185c:	cf 91       	pop	r28
	/*передаем данные или пропускаем*/
	if (data != RTC_SET_POINTER)
	{
		/*это чтобы привести данные к BCD формату*/
		data = ((data/10)<<4) + data%10;
		i2c_send_byte(data);
    185e:	65 c0       	rjmp	.+202    	; 0x192a <i2c_send_byte>
	}
}
    1860:	df 91       	pop	r29
    1862:	cf 91       	pop	r28
    1864:	08 95       	ret

00001866 <RTC_get>:

/************************************************************************/
/*            Чтение ОДНОГО байта по указанному адресу                  */
/************************************************************************/
uint8_t RTC_get(uint8_t address)
{
    1866:	cf 93       	push	r28
	uint8_t data=0;
	RTC_SetValue(address, RTC_SET_POINTER); //отправляем адрес регистра по которому хотим читать данные
    1868:	6f ef       	ldi	r22, 0xFF	; 255
    186a:	e4 df       	rcall	.-56     	; 0x1834 <RTC_SetValue>
	/*формируем состояние СТАРТ*/
	i2c_start_cond();
    186c:	58 d0       	rcall	.+176    	; 0x191e <i2c_start_cond>
	/*выдаем на шину пакет SLA-R*/
	i2c_send_byte(DS1307_ADR_R);  
    186e:	81 ed       	ldi	r24, 0xD1	; 209
    1870:	5c d0       	rcall	.+184    	; 0x192a <i2c_send_byte>
	/*чтение с подтверждением*/
	data=i2c_get_byte();  //1
    1872:	65 d0       	rcall	.+202    	; 0x193e <i2c_get_byte>
    1874:	c8 2f       	mov	r28, r24
	i2c_stop_cond();
    1876:	60 d0       	rcall	.+192    	; 0x1938 <i2c_stop_cond>
	return data;
	
}
    1878:	8c 2f       	mov	r24, r28
    187a:	cf 91       	pop	r28
    187c:	08 95       	ret

0000187e <RTC_init>:
/************************************************************************/
/*                                                                      */
/************************************************************************/
void RTC_init(void)
{
	RTC_SetValue(RTC_SQWE_ADR, 0x12);	//разрешение мендра с частотой 1Гц (осциллограф выручил, должно быть 0х10, но там частота 8кгц), поэтому 0x12
    187e:	62 e1       	ldi	r22, 0x12	; 18
    1880:	87 e0       	ldi	r24, 0x07	; 7
    1882:	d8 df       	rcall	.-80     	; 0x1834 <RTC_SetValue>
	if ((RTC_get(RTC_SEC_ADR)&0x80)!=0)	//если часы не идут (7 бит=1) - первый запуск
    1884:	80 e0       	ldi	r24, 0x00	; 0
    1886:	ef df       	rcall	.-34     	; 0x1866 <RTC_get>
    1888:	87 ff       	sbrs	r24, 7
    188a:	12 c0       	rjmp	.+36     	; 0x18b0 <RTC_init+0x32>
	{
		RTC_SetValue(RTC_HOUR_ADR, 12);
    188c:	6c e0       	ldi	r22, 0x0C	; 12
    188e:	82 e0       	ldi	r24, 0x02	; 2
    1890:	d1 df       	rcall	.-94     	; 0x1834 <RTC_SetValue>
		RTC_SetValue(RTC_MIN_ADR, 30);
    1892:	6e e1       	ldi	r22, 0x1E	; 30
    1894:	81 e0       	ldi	r24, 0x01	; 1
    1896:	ce df       	rcall	.-100    	; 0x1834 <RTC_SetValue>
		RTC_SetValue(RTC_SEC_ADR, 00);
    1898:	60 e0       	ldi	r22, 0x00	; 0
    189a:	80 e0       	ldi	r24, 0x00	; 0
    189c:	cb df       	rcall	.-106    	; 0x1834 <RTC_SetValue>
		RTC_SetValue(RTC_MONTH_ADR, 12);
    189e:	6c e0       	ldi	r22, 0x0C	; 12
    18a0:	85 e0       	ldi	r24, 0x05	; 5
    18a2:	c8 df       	rcall	.-112    	; 0x1834 <RTC_SetValue>
		RTC_SetValue(RTC_DAY_ADR, 31);
    18a4:	6f e1       	ldi	r22, 0x1F	; 31
    18a6:	84 e0       	ldi	r24, 0x04	; 4
    18a8:	c5 df       	rcall	.-118    	; 0x1834 <RTC_SetValue>
		RTC_SetValue(RTC_YEAR_ADR, 22);
    18aa:	66 e1       	ldi	r22, 0x16	; 22
    18ac:	86 e0       	ldi	r24, 0x06	; 6
    18ae:	c2 cf       	rjmp	.-124    	; 0x1834 <RTC_SetValue>
    18b0:	08 95       	ret

000018b2 <GetTick>:
/*                                                                      */
/************************************************************************/
uint16_t GetTick(void)
{
	static volatile uint16_t MirrorTimeMs;
	ATOMIC_BLOCK(ATOMIC_RESTORESTATE)	//организация атомарности операции, чтобы ничто не смогло вмешаться в процесс изменения переменной.
    18b2:	8f b7       	in	r24, 0x3f	; 63
    return 1;
}

static __inline__ uint8_t __iCliRetVal(void)
{
    cli();
    18b4:	f8 94       	cli
	{
		MirrorTimeMs = TimeMs;		
    18b6:	20 91 91 00 	lds	r18, 0x0091	; 0x800091 <TimeMs>
    18ba:	30 91 92 00 	lds	r19, 0x0092	; 0x800092 <TimeMs+0x1>
    18be:	30 93 90 00 	sts	0x0090, r19	; 0x800090 <MirrorTimeMs.1623+0x1>
    18c2:	20 93 8f 00 	sts	0x008F, r18	; 0x80008f <MirrorTimeMs.1623>
    (void)__s;
}

static __inline__ void __iRestore(const  uint8_t *__s)
{
    SREG = *__s;
    18c6:	8f bf       	out	0x3f, r24	; 63
	}
	return MirrorTimeMs;
    18c8:	80 91 8f 00 	lds	r24, 0x008F	; 0x80008f <MirrorTimeMs.1623>
    18cc:	90 91 90 00 	lds	r25, 0x0090	; 0x800090 <MirrorTimeMs.1623+0x1>
}
    18d0:	08 95       	ret

000018d2 <__vector_9>:
/************************************************************************/
/*                                                                      */
/************************************************************************/
ISR (TIMER0_OVF_vect)
{
    18d2:	1f 92       	push	r1
    18d4:	0f 92       	push	r0
    18d6:	0f b6       	in	r0, 0x3f	; 63
    18d8:	0f 92       	push	r0
    18da:	11 24       	eor	r1, r1
    18dc:	8f 93       	push	r24
    18de:	9f 93       	push	r25
	TimeMs++;
    18e0:	80 91 91 00 	lds	r24, 0x0091	; 0x800091 <TimeMs>
    18e4:	90 91 92 00 	lds	r25, 0x0092	; 0x800092 <TimeMs+0x1>
    18e8:	01 96       	adiw	r24, 0x01	; 1
    18ea:	90 93 92 00 	sts	0x0092, r25	; 0x800092 <TimeMs+0x1>
    18ee:	80 93 91 00 	sts	0x0091, r24	; 0x800091 <TimeMs>
	TCNT0  = 5;
    18f2:	85 e0       	ldi	r24, 0x05	; 5
    18f4:	82 bf       	out	0x32, r24	; 50
}
    18f6:	9f 91       	pop	r25
    18f8:	8f 91       	pop	r24
    18fa:	0f 90       	pop	r0
    18fc:	0f be       	out	0x3f, r0	; 63
    18fe:	0f 90       	pop	r0
    1900:	1f 90       	pop	r1
    1902:	18 95       	reti

00001904 <SysTick_init>:
/*                                                                      */
/************************************************************************/
void SysTick_init(void)
{
	//настройка таймера на задержку в 1 мс
	TCCR0|=(1<<CS01)|(1<<CS00); //делим частоту на 64. Счет до 250 переполнений - ровно 1мс
    1904:	83 b7       	in	r24, 0x33	; 51
    1906:	83 60       	ori	r24, 0x03	; 3
    1908:	83 bf       	out	0x33, r24	; 51
	TCNT0 = 5; // до вершины остается 250 циклов
    190a:	85 e0       	ldi	r24, 0x05	; 5
    190c:	82 bf       	out	0x32, r24	; 50
	TIMSK|=(1<<TOIE0); //разрешить прерывание по переполнению
    190e:	89 b7       	in	r24, 0x39	; 57
    1910:	81 60       	ori	r24, 0x01	; 1
    1912:	89 bf       	out	0x39, r24	; 57
    1914:	08 95       	ret

00001916 <i2c_Init>:
/************************************************************************/
/*							ИНИЦИАЛИЗАЦИЯ                               */
/************************************************************************/
void i2c_Init(void)
{
	TWBR = TWBR_VALUE;
    1916:	88 e4       	ldi	r24, 0x48	; 72
    1918:	80 b9       	out	0x00, r24	; 0
	TWSR = 0;
    191a:	11 b8       	out	0x01, r1	; 1
    191c:	08 95       	ret

0000191e <i2c_start_cond>:
/************************************************************************/
/*				ФОРМИРОВАНИЕ СОСТОЯНИЯ СТАРТ НА ШИНЕ                    */
/************************************************************************/
void i2c_start_cond(void)
{
	TWCR=(1<<TWINT)|(1<<TWSTA)|(1<<TWEN);   //формируем состояние старт
    191e:	84 ea       	ldi	r24, 0xA4	; 164
    1920:	86 bf       	out	0x36, r24	; 54
	while(!(TWCR&(1<<TWINT)));              //ждем, когда установится флаг успешной операции TWINT
    1922:	06 b6       	in	r0, 0x36	; 54
    1924:	07 fe       	sbrs	r0, 7
    1926:	fd cf       	rjmp	.-6      	; 0x1922 <i2c_start_cond+0x4>
}
    1928:	08 95       	ret

0000192a <i2c_send_byte>:
/************************************************************************/
/*						ОТПРАВКА БАЙТА ДАННЫХ                           */
/************************************************************************/
void i2c_send_byte (unsigned char data)
{
	TWDR=data;                              //запись в регистр данных байта информации
    192a:	83 b9       	out	0x03, r24	; 3
	TWCR=(1<<TWINT)|(1<<TWEN);              //отправка
    192c:	84 e8       	ldi	r24, 0x84	; 132
    192e:	86 bf       	out	0x36, r24	; 54
	while(!(TWCR&(1<<TWINT)));              //ждем, когда установится флаг успешной операции TWINT
    1930:	06 b6       	in	r0, 0x36	; 54
    1932:	07 fe       	sbrs	r0, 7
    1934:	fd cf       	rjmp	.-6      	; 0x1930 <i2c_send_byte+0x6>
}
    1936:	08 95       	ret

00001938 <i2c_stop_cond>:
/************************************************************************/
/*				ФОРМИРОВАНИЕ СОСТОЯНИЯ СТОП НА ШИНЕ                     */
/************************************************************************/
void i2c_stop_cond(void)
{
	TWCR=(1<<TWINT)|(1<<TWSTO)|(1<<TWEN);   //формируем состояние стоп
    1938:	84 e9       	ldi	r24, 0x94	; 148
    193a:	86 bf       	out	0x36, r24	; 54
    193c:	08 95       	ret

0000193e <i2c_get_byte>:
	// 		data = TWDR;
	// 	}
	// 	if (ack==1)
	//чтение без подтверждения
	//{
	TWCR = (1<<TWINT)|(1<<TWEN);
    193e:	84 e8       	ldi	r24, 0x84	; 132
    1940:	86 bf       	out	0x36, r24	; 54
	while(!(TWCR & (1<<TWINT)));
    1942:	06 b6       	in	r0, 0x36	; 54
    1944:	07 fe       	sbrs	r0, 7
    1946:	fd cf       	rjmp	.-6      	; 0x1942 <i2c_get_byte+0x4>
	data = TWDR;
    1948:	83 b1       	in	r24, 0x03	; 3
	//	};
	return data;
}
    194a:	08 95       	ret

0000194c <set_zero>:
}

//установка "0"
 void set_zero(void)
{
	set;
    194c:	97 9a       	sbi	0x12, 7	; 18
	...
	asm("nop");
	asm("nop");
	asm("nop");
	asm("nop");
	reset;
    1956:	97 98       	cbi	0x12, 7	; 18
    1958:	08 95       	ret

0000195a <set_one>:
}

//установка "1"
 void set_one(void)
{
	set;
    195a:	97 9a       	sbi	0x12, 7	; 18
	...
	asm("nop");
	asm("nop");
	asm("nop");
	asm("nop");
	asm("nop");
	reset;
    1970:	97 98       	cbi	0x12, 7	; 18
    1972:	08 95       	ret

00001974 <ws2812_send_byte>:
}

/*********ОТПРАВКА БАЙТА ИНФОРМАЦИИ*************/
void ws2812_send_byte(unsigned char c)
{
    1974:	cf 93       	push	r28
    1976:	df 93       	push	r29
    1978:	d8 2f       	mov	r29, r24
    197a:	c8 e0       	ldi	r28, 0x08	; 8
	unsigned char i=0;
	for(i=0;i<8;i++)
	{
		if(c & 0x80) set_one();
    197c:	d7 ff       	sbrs	r29, 7
    197e:	02 c0       	rjmp	.+4      	; 0x1984 <ws2812_send_byte+0x10>
    1980:	ec df       	rcall	.-40     	; 0x195a <set_one>
    1982:	01 c0       	rjmp	.+2      	; 0x1986 <ws2812_send_byte+0x12>
		else	    set_zero();
    1984:	e3 df       	rcall	.-58     	; 0x194c <set_zero>
		c <<= 1;
    1986:	dd 0f       	add	r29, r29
    1988:	c1 50       	subi	r28, 0x01	; 1

/*********ОТПРАВКА БАЙТА ИНФОРМАЦИИ*************/
void ws2812_send_byte(unsigned char c)
{
	unsigned char i=0;
	for(i=0;i<8;i++)
    198a:	c1 f7       	brne	.-16     	; 0x197c <ws2812_send_byte+0x8>
	{
		if(c & 0x80) set_one();
		else	    set_zero();
		c <<= 1;
	}
    198c:	df 91       	pop	r29
    198e:	cf 91       	pop	r28
    1990:	08 95       	ret

00001992 <ws2812_init>:

 void set_zero(void);						 //установка "0"
 void set_one(void);							 //установка "1"

void ws2812_init(void)
{
    1992:	cf 93       	push	r28
	DDRD|=(1<<PD7);//светодиод
    1994:	8f 9a       	sbi	0x11, 7	; 17
    1996:	cc e0       	ldi	r28, 0x0C	; 12
	
	for (uint8_t i=0; i<12; i++)//выключение подсветки (от помех после включения могут гореть произвольным цветом)
	{
		ws2812_send_byte(0);
    1998:	80 e0       	ldi	r24, 0x00	; 0
    199a:	ec df       	rcall	.-40     	; 0x1974 <ws2812_send_byte>
    199c:	c1 50       	subi	r28, 0x01	; 1

void ws2812_init(void)
{
	DDRD|=(1<<PD7);//светодиод
	
	for (uint8_t i=0; i<12; i++)//выключение подсветки (от помех после включения могут гореть произвольным цветом)
    199e:	e1 f7       	brne	.-8      	; 0x1998 <ws2812_init+0x6>
	{
		ws2812_send_byte(0);
	}
}
    19a0:	cf 91       	pop	r28
    19a2:	08 95       	ret

000019a4 <__udivmodqi4>:
    19a4:	99 1b       	sub	r25, r25
    19a6:	79 e0       	ldi	r23, 0x09	; 9
    19a8:	04 c0       	rjmp	.+8      	; 0x19b2 <__udivmodqi4_ep>

000019aa <__udivmodqi4_loop>:
    19aa:	99 1f       	adc	r25, r25
    19ac:	96 17       	cp	r25, r22
    19ae:	08 f0       	brcs	.+2      	; 0x19b2 <__udivmodqi4_ep>
    19b0:	96 1b       	sub	r25, r22

000019b2 <__udivmodqi4_ep>:
    19b2:	88 1f       	adc	r24, r24
    19b4:	7a 95       	dec	r23
    19b6:	c9 f7       	brne	.-14     	; 0x19aa <__udivmodqi4_loop>
    19b8:	80 95       	com	r24
    19ba:	08 95       	ret

000019bc <__divmodqi4>:
    19bc:	87 fb       	bst	r24, 7
    19be:	08 2e       	mov	r0, r24
    19c0:	06 26       	eor	r0, r22
    19c2:	87 fd       	sbrc	r24, 7
    19c4:	81 95       	neg	r24
    19c6:	67 fd       	sbrc	r22, 7
    19c8:	61 95       	neg	r22
    19ca:	ec df       	rcall	.-40     	; 0x19a4 <__udivmodqi4>
    19cc:	0e f4       	brtc	.+2      	; 0x19d0 <__divmodqi4_1>
    19ce:	91 95       	neg	r25

000019d0 <__divmodqi4_1>:
    19d0:	07 fc       	sbrc	r0, 7
    19d2:	81 95       	neg	r24

000019d4 <__divmodqi4_exit>:
    19d4:	08 95       	ret

000019d6 <__udivmodhi4>:
    19d6:	aa 1b       	sub	r26, r26
    19d8:	bb 1b       	sub	r27, r27
    19da:	51 e1       	ldi	r21, 0x11	; 17
    19dc:	07 c0       	rjmp	.+14     	; 0x19ec <__udivmodhi4_ep>

000019de <__udivmodhi4_loop>:
    19de:	aa 1f       	adc	r26, r26
    19e0:	bb 1f       	adc	r27, r27
    19e2:	a6 17       	cp	r26, r22
    19e4:	b7 07       	cpc	r27, r23
    19e6:	10 f0       	brcs	.+4      	; 0x19ec <__udivmodhi4_ep>
    19e8:	a6 1b       	sub	r26, r22
    19ea:	b7 0b       	sbc	r27, r23

000019ec <__udivmodhi4_ep>:
    19ec:	88 1f       	adc	r24, r24
    19ee:	99 1f       	adc	r25, r25
    19f0:	5a 95       	dec	r21
    19f2:	a9 f7       	brne	.-22     	; 0x19de <__udivmodhi4_loop>
    19f4:	80 95       	com	r24
    19f6:	90 95       	com	r25
    19f8:	bc 01       	movw	r22, r24
    19fa:	cd 01       	movw	r24, r26
    19fc:	08 95       	ret

000019fe <__divmodhi4>:
    19fe:	97 fb       	bst	r25, 7
    1a00:	07 2e       	mov	r0, r23
    1a02:	16 f4       	brtc	.+4      	; 0x1a08 <__divmodhi4+0xa>
    1a04:	00 94       	com	r0
    1a06:	06 d0       	rcall	.+12     	; 0x1a14 <__divmodhi4_neg1>
    1a08:	77 fd       	sbrc	r23, 7
    1a0a:	08 d0       	rcall	.+16     	; 0x1a1c <__divmodhi4_neg2>
    1a0c:	e4 df       	rcall	.-56     	; 0x19d6 <__udivmodhi4>
    1a0e:	07 fc       	sbrc	r0, 7
    1a10:	05 d0       	rcall	.+10     	; 0x1a1c <__divmodhi4_neg2>
    1a12:	3e f4       	brtc	.+14     	; 0x1a22 <__divmodhi4_exit>

00001a14 <__divmodhi4_neg1>:
    1a14:	90 95       	com	r25
    1a16:	81 95       	neg	r24
    1a18:	9f 4f       	sbci	r25, 0xFF	; 255
    1a1a:	08 95       	ret

00001a1c <__divmodhi4_neg2>:
    1a1c:	70 95       	com	r23
    1a1e:	61 95       	neg	r22
    1a20:	7f 4f       	sbci	r23, 0xFF	; 255

00001a22 <__divmodhi4_exit>:
    1a22:	08 95       	ret

00001a24 <__divmodsi4>:
    1a24:	05 2e       	mov	r0, r21
    1a26:	97 fb       	bst	r25, 7
    1a28:	16 f4       	brtc	.+4      	; 0x1a2e <__divmodsi4+0xa>
    1a2a:	00 94       	com	r0
    1a2c:	0f d0       	rcall	.+30     	; 0x1a4c <__negsi2>
    1a2e:	57 fd       	sbrc	r21, 7
    1a30:	05 d0       	rcall	.+10     	; 0x1a3c <__divmodsi4_neg2>
    1a32:	1a d0       	rcall	.+52     	; 0x1a68 <__udivmodsi4>
    1a34:	07 fc       	sbrc	r0, 7
    1a36:	02 d0       	rcall	.+4      	; 0x1a3c <__divmodsi4_neg2>
    1a38:	46 f4       	brtc	.+16     	; 0x1a4a <__divmodsi4_exit>
    1a3a:	08 c0       	rjmp	.+16     	; 0x1a4c <__negsi2>

00001a3c <__divmodsi4_neg2>:
    1a3c:	50 95       	com	r21
    1a3e:	40 95       	com	r20
    1a40:	30 95       	com	r19
    1a42:	21 95       	neg	r18
    1a44:	3f 4f       	sbci	r19, 0xFF	; 255
    1a46:	4f 4f       	sbci	r20, 0xFF	; 255
    1a48:	5f 4f       	sbci	r21, 0xFF	; 255

00001a4a <__divmodsi4_exit>:
    1a4a:	08 95       	ret

00001a4c <__negsi2>:
    1a4c:	90 95       	com	r25
    1a4e:	80 95       	com	r24
    1a50:	70 95       	com	r23
    1a52:	61 95       	neg	r22
    1a54:	7f 4f       	sbci	r23, 0xFF	; 255
    1a56:	8f 4f       	sbci	r24, 0xFF	; 255
    1a58:	9f 4f       	sbci	r25, 0xFF	; 255
    1a5a:	08 95       	ret

00001a5c <__mulshisi3>:
    1a5c:	b7 ff       	sbrs	r27, 7
    1a5e:	26 c0       	rjmp	.+76     	; 0x1aac <__muluhisi3>

00001a60 <__mulohisi3>:
    1a60:	25 d0       	rcall	.+74     	; 0x1aac <__muluhisi3>
    1a62:	82 1b       	sub	r24, r18
    1a64:	93 0b       	sbc	r25, r19
    1a66:	08 95       	ret

00001a68 <__udivmodsi4>:
    1a68:	a1 e2       	ldi	r26, 0x21	; 33
    1a6a:	1a 2e       	mov	r1, r26
    1a6c:	aa 1b       	sub	r26, r26
    1a6e:	bb 1b       	sub	r27, r27
    1a70:	fd 01       	movw	r30, r26
    1a72:	0d c0       	rjmp	.+26     	; 0x1a8e <__udivmodsi4_ep>

00001a74 <__udivmodsi4_loop>:
    1a74:	aa 1f       	adc	r26, r26
    1a76:	bb 1f       	adc	r27, r27
    1a78:	ee 1f       	adc	r30, r30
    1a7a:	ff 1f       	adc	r31, r31
    1a7c:	a2 17       	cp	r26, r18
    1a7e:	b3 07       	cpc	r27, r19
    1a80:	e4 07       	cpc	r30, r20
    1a82:	f5 07       	cpc	r31, r21
    1a84:	20 f0       	brcs	.+8      	; 0x1a8e <__udivmodsi4_ep>
    1a86:	a2 1b       	sub	r26, r18
    1a88:	b3 0b       	sbc	r27, r19
    1a8a:	e4 0b       	sbc	r30, r20
    1a8c:	f5 0b       	sbc	r31, r21

00001a8e <__udivmodsi4_ep>:
    1a8e:	66 1f       	adc	r22, r22
    1a90:	77 1f       	adc	r23, r23
    1a92:	88 1f       	adc	r24, r24
    1a94:	99 1f       	adc	r25, r25
    1a96:	1a 94       	dec	r1
    1a98:	69 f7       	brne	.-38     	; 0x1a74 <__udivmodsi4_loop>
    1a9a:	60 95       	com	r22
    1a9c:	70 95       	com	r23
    1a9e:	80 95       	com	r24
    1aa0:	90 95       	com	r25
    1aa2:	9b 01       	movw	r18, r22
    1aa4:	ac 01       	movw	r20, r24
    1aa6:	bd 01       	movw	r22, r26
    1aa8:	cf 01       	movw	r24, r30
    1aaa:	08 95       	ret

00001aac <__muluhisi3>:
    1aac:	09 d0       	rcall	.+18     	; 0x1ac0 <__umulhisi3>
    1aae:	a5 9f       	mul	r26, r21
    1ab0:	90 0d       	add	r25, r0
    1ab2:	b4 9f       	mul	r27, r20
    1ab4:	90 0d       	add	r25, r0
    1ab6:	a4 9f       	mul	r26, r20
    1ab8:	80 0d       	add	r24, r0
    1aba:	91 1d       	adc	r25, r1
    1abc:	11 24       	eor	r1, r1
    1abe:	08 95       	ret

00001ac0 <__umulhisi3>:
    1ac0:	a2 9f       	mul	r26, r18
    1ac2:	b0 01       	movw	r22, r0
    1ac4:	b3 9f       	mul	r27, r19
    1ac6:	c0 01       	movw	r24, r0
    1ac8:	a3 9f       	mul	r26, r19
    1aca:	01 d0       	rcall	.+2      	; 0x1ace <__umulhisi3+0xe>
    1acc:	b2 9f       	mul	r27, r18
    1ace:	70 0d       	add	r23, r0
    1ad0:	81 1d       	adc	r24, r1
    1ad2:	11 24       	eor	r1, r1
    1ad4:	91 1d       	adc	r25, r1
    1ad6:	08 95       	ret

00001ad8 <eeprom_read_byte>:
    1ad8:	e1 99       	sbic	0x1c, 1	; 28
    1ada:	fe cf       	rjmp	.-4      	; 0x1ad8 <eeprom_read_byte>
    1adc:	9f bb       	out	0x1f, r25	; 31
    1ade:	8e bb       	out	0x1e, r24	; 30
    1ae0:	e0 9a       	sbi	0x1c, 0	; 28
    1ae2:	99 27       	eor	r25, r25
    1ae4:	8d b3       	in	r24, 0x1d	; 29
    1ae6:	08 95       	ret

00001ae8 <eeprom_read_word>:
    1ae8:	a8 e1       	ldi	r26, 0x18	; 24
    1aea:	b0 e0       	ldi	r27, 0x00	; 0
    1aec:	42 e0       	ldi	r20, 0x02	; 2
    1aee:	50 e0       	ldi	r21, 0x00	; 0
    1af0:	12 c0       	rjmp	.+36     	; 0x1b16 <eeprom_read_blraw>

00001af2 <eeprom_write_byte>:
    1af2:	26 2f       	mov	r18, r22

00001af4 <eeprom_write_r18>:
    1af4:	e1 99       	sbic	0x1c, 1	; 28
    1af6:	fe cf       	rjmp	.-4      	; 0x1af4 <eeprom_write_r18>
    1af8:	9f bb       	out	0x1f, r25	; 31
    1afa:	8e bb       	out	0x1e, r24	; 30
    1afc:	2d bb       	out	0x1d, r18	; 29
    1afe:	0f b6       	in	r0, 0x3f	; 63
    1b00:	f8 94       	cli
    1b02:	e2 9a       	sbi	0x1c, 2	; 28
    1b04:	e1 9a       	sbi	0x1c, 1	; 28
    1b06:	0f be       	out	0x3f, r0	; 63
    1b08:	01 96       	adiw	r24, 0x01	; 1
    1b0a:	08 95       	ret

00001b0c <eeprom_write_word>:
    1b0c:	f2 df       	rcall	.-28     	; 0x1af2 <eeprom_write_byte>
    1b0e:	27 2f       	mov	r18, r23
    1b10:	f1 cf       	rjmp	.-30     	; 0x1af4 <eeprom_write_r18>

00001b12 <eeprom_read_block>:
    1b12:	dc 01       	movw	r26, r24
    1b14:	cb 01       	movw	r24, r22

00001b16 <eeprom_read_blraw>:
    1b16:	fc 01       	movw	r30, r24
    1b18:	e1 99       	sbic	0x1c, 1	; 28
    1b1a:	fe cf       	rjmp	.-4      	; 0x1b18 <eeprom_read_blraw+0x2>
    1b1c:	06 c0       	rjmp	.+12     	; 0x1b2a <eeprom_read_blraw+0x14>
    1b1e:	ff bb       	out	0x1f, r31	; 31
    1b20:	ee bb       	out	0x1e, r30	; 30
    1b22:	e0 9a       	sbi	0x1c, 0	; 28
    1b24:	31 96       	adiw	r30, 0x01	; 1
    1b26:	0d b2       	in	r0, 0x1d	; 29
    1b28:	0d 92       	st	X+, r0
    1b2a:	41 50       	subi	r20, 0x01	; 1
    1b2c:	50 40       	sbci	r21, 0x00	; 0
    1b2e:	b8 f7       	brcc	.-18     	; 0x1b1e <eeprom_read_blraw+0x8>
    1b30:	08 95       	ret

00001b32 <_exit>:
    1b32:	f8 94       	cli

00001b34 <__stop_program>:
    1b34:	ff cf       	rjmp	.-2      	; 0x1b34 <__stop_program>
